(lp0
(I8
I8
F-0.06441439496343057
S'T'
p1
tp2
a(I9
I8
F-0.1401496144647375
g1
tp3
a(I10
I8
F-0.2810707849868579
S'E'
p4
tp5
a(I11
I8
F-0.03622473048078575
g4
tp6
a(I12
I8
F-0.06816671656812667
g4
tp7
a(I13
I8
F-0.7859019746086936
g4
tp8
a(I14
I8
F-0.4562221072096577
g1
tp9
a(I15
I8
F-0.48809159785013767
g1
tp10
a(I16
I8
F-0.32569427133183027
g1
tp11
a(I17
I8
F-0.904789505598319
S'2'
p12
tp13
a(I18
I8
F-0.4829682355911658
g12
tp14
a(I19
I8
F-0.7589677175777882
g1
tp15
a(I20
I8
F-0.15709181384908294
g1
tp16
a(I21
I8
F-0.13788500376843568
g1
tp17
a(I22
I8
F-0.8309241548460273
g1
tp18
a(I23
I8
F-1.0132830379076392
g1
tp19
a(I24
I8
F-0.9565962923087019
g1
tp20
a(I25
I8
F-0.32943395031513983
g4
tp21
a(I26
I8
F-0.3997190913932261
g4
tp22
a(I27
I8
F-0.7204308792846765
g4
tp23
a(I28
I8
F-0.12999085006837774
g12
tp24
a(I29
I8
F-0.013513161304344932
g12
tp25
a(I30
I8
F-0.004517352340988356
g12
tp26
a(I31
I8
F-0.049597285590982546
g12
tp27
a(I32
I8
F-0.08627742586978011
g1
tp28
a(I33
I8
F-0.14063486649173854
g1
tp29
a(I34
I8
F-0.5096474830036034
g1
tp30
a(I35
I8
F-0.8572751461398878
g1
tp31
a(I36
I8
F-0.938276259482679
S'N'
p32
tp33
a(I37
I8
F-0.8131064748269918
g4
tp34
a(I38
I8
F-0.4662090588377779
g12
tp35
a(I39
I8
F-0.0905899472729452
g12
tp36
a(I40
I8
F-0.17905443273186297
g12
tp37
a(I41
I8
F-0.355653069794773
g1
tp38
a(I42
I8
F-0.11689602884754102
g1
tp39
a(I43
I8
F-0.7532557702381217
g1
tp40
a(I44
I8
F-0.7130805861262234
g1
tp41
a(I45
I8
F-0.35712649637392785
g1
tp42
a(I46
I8
F-0.08952340534782853
g1
tp43
a(I47
I8
F-0.1904246407797705
g1
tp44
a(I48
I8
F-0.4879013714923865
g1
tp45
a(I49
I8
F-0.7173550303841287
g1
tp46
a(I50
I8
F-0.34932712188779363
g4
tp47
a(I51
I8
F-0.5224591003895255
g1
tp48
a(I52
I8
F-0.8845574147832033
g12
tp49
a(I53
I8
F-0.32108745223667146
g12
tp50
a(I54
I8
F-0.292183581118025
g12
tp51
a(I55
I8
F-0.23142426721607026
g12
tp52
a(I56
I8
F-0.219856706551813
g12
tp53
a(I57
I8
F-0.18694472640906404
g12
tp54
a(I58
I8
F-0.07963598642412013
g12
tp55
a(I59
I8
F-0.5113863631150899
g12
tp56
a(I60
I8
F-0.16799648855873772
g4
tp57
a(I61
I8
F-0.14271001131270258
g4
tp58
a(I62
I8
F-0.5546720324280917
g4
tp59
a(I63
I8
F-0.5036954177003324
g4
tp60
a(I64
I8
F-0.5616500803650203
g4
tp61
a(I65
I8
F-0.8012315436007741
g4
tp62
a(I66
I8
F-0.7409806541565759
g4
tp63
a(I67
I8
F-0.9149742550435738
g4
tp64
a(I68
I8
F-0.06901898152880093
g4
tp65
a(I69
I8
F-0.20021224010727423
g4
tp66
a(I70
I8
F-0.5198510986193633
g4
tp67
a(I71
I8
F-0.805846870654554
g4
tp68
a(I72
I8
F-0.893882203442123
g1
tp69
a(I73
I8
F-0.754459153483847
g4
tp70
a(I74
I8
F-0.2483178154612819
g4
tp71
a(I75
I8
F-0.05069729887044647
g4
tp72
a(I76
I8
F-0.04161396857911356
g4
tp73
a(I77
I8
F-0.08782140109614364
g4
tp74
a(I78
I8
F-0.12624955337867694
g4
tp75
a(I79
I8
F-0.24583763074878004
g4
tp76
a(I80
I8
F-0.3651987574603661
g4
tp77
a(I81
I8
F-0.5626978239225768
g4
tp78
a(I82
I8
F-0.9171199043289142
g4
tp79
a(I83
I8
F-0.6680405601369591
g4
tp80
a(I84
I8
F-0.2625150300753885
g4
tp81
a(I85
I8
F-0.05938448510686104
g4
tp82
a(I86
I8
F-0.10632229034720189
g4
tp83
a(I87
I8
F-0.11987853973891469
g4
tp84
a(I88
I8
F-0.29359432176525374
g4
tp85
a(I89
I8
F-0.1750037617494527
g4
tp86
a(I90
I8
F-0.13846581348052833
g4
tp87
a(I91
I8
F-0.23431686307202523
g4
tp88
a(I92
I8
F-0.5622665380172029
g4
tp89
a(I93
I8
F-0.9377327881932797
g4
tp90
a(I94
I8
F-0.5436113949425403
g12
tp91
a(I95
I8
F-0.8060908893615102
g1
tp92
a(I96
I8
F-0.7005873634394865
g1
tp93
a(I97
I8
F-0.9226282085542675
g1
tp94
a(I9
I9
F-0.09494934432151339
g1
tp95
a(I10
I9
F-0.9217270723508899
g1
tp96
a(I11
I9
F-0.18704210920410924
g4
tp97
a(I12
I9
F-0.030129067826427935
g4
tp98
a(I13
I9
F-0.05054748454143888
g4
tp99
a(I14
I9
F-0.5139555420831995
g4
tp100
a(I15
I9
F-0.2506197644338801
g1
tp101
a(I16
I9
F-0.2858927443440472
g1
tp102
a(I17
I9
F-0.25204689433362887
g1
tp103
a(I18
I9
F-0.7127614258178634
g12
tp104
a(I19
I9
F-0.4444932183096606
g12
tp105
a(I20
I9
F-0.8386645072004065
g1
tp106
a(I21
I9
F-0.5475625764703568
g1
tp107
a(I22
I9
F-0.5799971900586895
g1
tp108
a(I23
I9
F-0.7209613345120369
g1
tp109
a(I24
I9
F-0.9438709915087735
g1
tp110
a(I25
I9
F-0.9827714863053448
g4
tp111
a(I26
I9
F-0.26717002607507967
g4
tp112
a(I27
I9
F-0.31458790732918407
g4
tp113
a(I28
I9
F-0.5793424675040129
g4
tp114
a(I29
I9
F-0.08448927490497199
g12
tp115
a(I30
I9
F-0.010812800650308933
g12
tp116
a(I31
I9
F-0.004086124725012828
g12
tp117
a(I32
I9
F-0.07020299119508049
g12
tp118
a(I33
I9
F-0.23842726008105777
g1
tp119
a(I34
I9
F-0.5714552965926205
g1
tp120
a(I35
I9
F-0.7788670467798015
g1
tp121
a(I36
I9
F-1.006977128796474
g1
tp122
a(I37
I9
F-0.7529713745904004
g32
tp123
a(I38
I9
F-1.2578263622112709
g4
tp124
a(I39
I9
F-0.4175023628590265
g12
tp125
a(I40
I9
F-0.11203937842380247
g12
tp126
a(I41
I9
F-0.18440526893635434
g12
tp127
a(I42
I9
F-0.3190213432735651
g1
tp128
a(I43
I9
F-0.11293893079916788
g1
tp129
a(I44
I9
F-0.8862452430670563
g1
tp130
a(I45
I9
F-1.5081323283985733
S'3'
p131
tp132
a(I46
I9
F-1.1164701007276434
g1
tp133
a(I47
I9
F-0.20192027289639916
g1
tp134
a(I48
I9
F-0.2629228624080404
g1
tp135
a(I49
I9
F-0.6614847181053246
g1
tp136
a(I50
I9
F-1.1813381952398365
g1
tp137
a(I51
I9
F-0.4015123383533309
g4
tp138
a(I52
I9
F-0.688831549817948
g1
tp139
a(I53
I9
F-0.7690157465339067
g12
tp140
a(I54
I9
F-0.6188796112955256
g12
tp141
a(I55
I9
F-0.30609800255545067
g12
tp142
a(I56
I9
F-0.19950831420429246
g12
tp143
a(I57
I9
F-0.3069702435565085
g12
tp144
a(I58
I9
F-0.08238372848743945
g12
tp145
a(I59
I9
F-0.03298577116144178
g12
tp146
a(I60
I9
F-0.34807106007190536
g12
tp147
a(I61
I9
F-0.27517283303285067
g4
tp148
a(I62
I9
F-0.4472549308655192
g4
tp149
a(I63
I9
F-0.3981114554604066
S'8'
p150
tp151
a(I64
I9
F-0.5403396019410496
g150
tp152
a(I65
I9
F-0.8641731224766938
g150
tp153
a(I66
I9
F-0.6287209551846736
g4
tp154
a(I67
I9
F-0.27238496223066183
g4
tp155
a(I68
I9
F-0.20580793240667714
g4
tp156
a(I69
I9
F-0.2707337772347073
g4
tp157
a(I70
I9
F-1.1211244709011137
g4
tp158
a(I71
I9
F-0.7645192090675135
g131
tp159
a(I72
I9
F-1.1187715644168883
g131
tp160
a(I73
I9
F-0.7200760447722324
g150
tp161
a(I74
I9
F-0.43464072580497204
g150
tp162
a(I75
I9
F-0.43996780717495704
g150
tp163
a(I76
I9
F-0.27285374180368893
g4
tp164
a(I77
I9
F-0.07885118160638387
g4
tp165
a(I78
I9
F-0.10745771921252854
g4
tp166
a(I79
I9
F-0.14953031595917698
g4
tp167
a(I80
I9
F-0.3286004240886739
g4
tp168
a(I81
I9
F-0.4403972298420224
g4
tp169
a(I82
I9
F-0.755521007696807
g150
tp170
a(I83
I9
F-0.38561039826179766
g131
tp171
a(I84
I9
F-0.22781549440110813
g131
tp172
a(I85
I9
F-0.7813570647029072
g131
tp173
a(I86
I9
F-1.0312465666044948
g150
tp174
a(I87
I9
F-0.46322630150665295
g4
tp175
a(I88
I9
F-0.1283505519127368
g4
tp176
a(I89
I9
F-0.2648366674169439
g4
tp177
a(I90
I9
F-0.16802582863746796
g4
tp178
a(I91
I9
F-0.1383967038240825
g4
tp179
a(I92
I9
F-0.21991149386774048
g4
tp180
a(I93
I9
F-0.4881464409870893
g4
tp181
a(I94
I9
F-1.0506299373751635
g4
tp182
a(I95
I9
F-0.46905483152485333
g12
tp183
a(I96
I9
F-0.8749072212057715
g1
tp184
a(I97
I9
F-0.9597057739859974
g1
tp185
a(I10
I10
F-0.8754385616913912
g1
tp186
a(I11
I10
F-0.18710906090059565
g4
tp187
a(I12
I10
F-0.02704194532517701
g4
tp188
a(I13
I10
F-0.05282359659789418
g4
tp189
a(I14
I10
F-0.15721173940262795
g4
tp190
a(I15
I10
F-0.6599529575771604
g1
tp191
a(I16
I10
F-0.3619447026209476
g1
tp192
a(I17
I10
F-0.31873460458972525
g1
tp193
a(I18
I10
F-0.9218439316336263
g12
tp194
a(I19
I10
F-0.5129361754701217
g12
tp195
a(I20
I10
F-0.7155512156806175
g1
tp196
a(I21
I10
F-0.42966153785585065
g1
tp197
a(I22
I10
F-0.677889459659608
g1
tp198
a(I23
I10
F-0.7976287358363895
g131
tp199
a(I24
I10
F-0.9127693113379938
g1
tp200
a(I25
I10
F-0.8024027450026727
g1
tp201
a(I26
I10
F-0.49652013545092766
g4
tp202
a(I27
I10
F-0.40924502814449254
g4
tp203
a(I28
I10
F-0.264842684792268
g4
tp204
a(I29
I10
F-0.37425163734437633
g12
tp205
a(I30
I10
F-0.02939794721053386
g12
tp206
a(I31
I10
F-0.006258957875343152
g12
tp207
a(I32
I10
F-0.06532108119809774
g12
tp208
a(I33
I10
F-0.4154155996610737
g1
tp209
a(I34
I10
F-0.500488254494234
g1
tp210
a(I35
I10
F-0.8989903544814294
g1
tp211
a(I36
I10
F-1.0467700787192196
g1
tp212
a(I37
I10
F-0.8896153367200917
g32
tp213
a(I38
I10
F-1.023249023464978
g4
tp214
a(I39
I10
F-0.849523640958228
g4
tp215
a(I40
I10
F-0.34273618742189343
g12
tp216
a(I41
I10
F-0.18104841721549206
g12
tp217
a(I42
I10
F-0.4375710781412721
g1
tp218
a(I43
I10
F-0.20041927024055045
g1
tp219
a(I44
I10
F-1.0168731412015204
g12
tp220
a(I45
I10
F-1.4722170151704432
g131
tp221
a(I46
I10
F-1.1305685335066191
g12
tp222
a(I47
I10
F-0.7771871705097202
g1
tp223
a(I48
I10
F-0.21260255304373352
g1
tp224
a(I49
I10
F-0.5238542627894512
g1
tp225
a(I50
I10
F-1.2140268740279838
g1
tp226
a(I51
I10
F-0.6251920587141648
g4
tp227
a(I52
I10
F-0.6331988966062548
g1
tp228
a(I53
I10
F-0.9640245899834828
g4
tp229
a(I54
I10
F-0.3802668531448892
g12
tp230
a(I55
I10
F-0.23961212964912462
g12
tp231
a(I56
I10
F-0.15909663516812425
g12
tp232
a(I57
I10
F-0.18517769735384568
g12
tp233
a(I58
I10
F-0.08881639223805306
g12
tp234
a(I59
I10
F-0.04109552811663414
g12
tp235
a(I60
I10
F-0.3481614541544693
g12
tp236
a(I61
I10
F-0.14896572055337098
g4
tp237
a(I62
I10
F-0.3705412707261251
g4
tp238
a(I63
I10
F-0.3615343913768408
g150
tp239
a(I64
I10
F-0.31643728341125205
g150
tp240
a(I65
I10
F-0.4446193266500869
g150
tp241
a(I66
I10
F-0.3727724080094816
g4
tp242
a(I67
I10
F-0.11687729350807115
g4
tp243
a(I68
I10
F-0.11585970232581369
g4
tp244
a(I69
I10
F-0.11552020591772608
g4
tp245
a(I70
I10
F-0.6237728728598583
g4
tp246
a(I71
I10
F-0.7381944260005721
g150
tp247
a(I72
I10
F-0.6205615893769256
g150
tp248
a(I73
I10
F-0.35302584706489104
g150
tp249
a(I74
I10
F-0.23253194056335208
g150
tp250
a(I75
I10
F-0.5659086312760508
g150
tp251
a(I76
I10
F-0.24601904894566315
g4
tp252
a(I77
I10
F-0.037144795944204737
g4
tp253
a(I78
I10
F-0.01611676004159414
g4
tp254
a(I79
I10
F-0.025525701530869513
g4
tp255
a(I80
I10
F-0.05935273804876418
g4
tp256
a(I81
I10
F-0.13440648482043246
g4
tp257
a(I82
I10
F-0.5888840117125489
g150
tp258
a(I83
I10
F-0.661598676832483
g150
tp259
a(I84
I10
F-0.688695508852418
g131
tp260
a(I85
I10
F-0.8636138697275153
g4
tp261
a(I86
I10
F-0.6135403447817929
g150
tp262
a(I87
I10
F-0.3710483942190389
g4
tp263
a(I88
I10
F-0.06831768701290755
g4
tp264
a(I89
I10
F-0.08581838757275213
g4
tp265
a(I90
I10
F-0.06005127662323151
g4
tp266
a(I91
I10
F-0.03887344435916624
g4
tp267
a(I92
I10
F-0.08436858499466561
g4
tp268
a(I93
I10
F-0.1913035662572605
g4
tp269
a(I94
I10
F-0.6988460513704157
g4
tp270
a(I95
I10
F-1.0193708019740488
S'U'
p271
tp272
a(I96
I10
F-0.4781374080080229
g12
tp273
a(I97
I10
F-0.9503975826371048
g12
tp274
a(I11
I11
F-1.1290725345697756
g4
tp275
a(I12
I11
F-0.14957515567226942
g4
tp276
a(I13
I11
F-0.03014488600600702
g4
tp277
a(I14
I11
F-0.02791763206930333
g4
tp278
a(I15
I11
F-0.17404565122268598
g4
tp279
a(I16
I11
F-0.5236785404613468
g1
tp280
a(I17
I11
F-0.37753229209683875
g1
tp281
a(I18
I11
F-0.8568125988358432
g1
tp282
a(I19
I11
F-0.7197881280659575
g12
tp283
a(I20
I11
F-0.39175236983205847
g12
tp284
a(I21
I11
F-0.5605152758614363
g131
tp285
a(I22
I11
F-0.40455746855934366
g131
tp286
a(I23
I11
F-0.2149900895197179
g131
tp287
a(I24
I11
F-0.36870662802307336
g131
tp288
a(I25
I11
F-0.8125371495905958
g1
tp289
a(I26
I11
F-1.1123527870832006
g4
tp290
a(I27
I11
F-0.3099417158803827
g4
tp291
a(I28
I11
F-0.3542999912989173
g4
tp292
a(I29
I11
F-0.38466222749880763
g4
tp293
a(I30
I11
F-0.22874793527340337
g12
tp294
a(I31
I11
F-0.017568769487458703
g12
tp295
a(I32
I11
F-0.005650525854046523
g12
tp296
a(I33
I11
F-0.27481463684504537
g12
tp297
a(I34
I11
F-1.1111444847565901
g131
tp298
a(I35
I11
F-0.9783299709567684
g1
tp299
a(I36
I11
F-1.1232303168592535
g1
tp300
a(I37
I11
F-1.1122069220347741
g4
tp301
a(I38
I11
F-0.48160162874473805
g32
tp302
a(I39
I11
F-1.2669367403602072
g32
tp303
a(I40
I11
F-0.8084482888919307
g4
tp304
a(I41
I11
F-0.34771850365539025
g12
tp305
a(I42
I11
F-0.19474360240989969
g12
tp306
a(I43
I11
F-0.5141320689154832
g1
tp307
a(I44
I11
F-0.7675812955313157
g1
tp308
a(I45
I11
F-0.6939441276397899
g4
tp309
a(I46
I11
F-1.0848772756807183
g131
tp310
a(I47
I11
F-1.010296183166255
g12
tp311
a(I48
I11
F-1.1206014961413164
g12
tp312
a(I49
I11
F-0.29712065676376914
g1
tp313
a(I50
I11
F-0.963396570125622
g1
tp314
a(I51
I11
F-1.4307098758003622
g4
tp315
a(I52
I11
F-0.8419133198747616
g4
tp316
a(I53
I11
F-0.648049036958813
g4
tp317
a(I54
I11
F-0.4297405887568522
g4
tp318
a(I55
I11
F-0.3512852506385514
g12
tp319
a(I56
I11
F-0.40796703940439677
g12
tp320
a(I57
I11
F-0.36974487812888174
g12
tp321
a(I58
I11
F-0.24491975620053125
g12
tp322
a(I59
I11
F-0.05258593497557675
g12
tp323
a(I60
I11
F-0.023019716604520967
g12
tp324
a(I61
I11
F-0.1839965198069238
g12
tp325
a(I62
I11
F-0.3029899463649195
g4
tp326
a(I63
I11
F-0.8934075519255766
g4
tp327
a(I64
I11
F-0.20965685562370126
g150
tp328
a(I65
I11
F-0.1109213448181545
g150
tp329
a(I66
I11
F-0.2687513882661623
g150
tp330
a(I67
I11
F-0.5562880756811728
g150
tp331
a(I68
I11
F-0.5308697875536293
g150
tp332
a(I69
I11
F-0.9953611843263928
S'B'
p333
tp334
a(I70
I11
F-0.9424704618769657
g150
tp335
a(I71
I11
F-0.7072372030614622
g150
tp336
a(I72
I11
F-0.7408566643596146
g150
tp337
a(I73
I11
F-0.3563026411493088
g150
tp338
a(I74
I11
F-0.08107989969301205
g150
tp339
a(I75
I11
F-0.12569459859339793
g150
tp340
a(I76
I11
F-0.36077718493512984
g150
tp341
a(I77
I11
F-0.5550073028719461
g4
tp342
a(I78
I11
F-0.04792497318987748
g4
tp343
a(I79
I11
F-0.02522840255836949
g4
tp344
a(I80
I11
F-0.038121946201774976
g4
tp345
a(I81
I11
F-0.08908269762698989
g4
tp346
a(I82
I11
F-0.5509294345322273
g4
tp347
a(I83
I11
F-0.16268217341309488
g150
tp348
a(I84
I11
F-0.37936315515456714
g150
tp349
a(I85
I11
F-0.6456074699137115
g131
tp350
a(I86
I11
F-0.8232010213306294
g150
tp351
a(I87
I11
F-0.34119750386956466
g150
tp352
a(I88
I11
F-0.5602896095809972
g4
tp353
a(I89
I11
F-0.08040750913012248
g4
tp354
a(I90
I11
F-0.09709055214731814
g4
tp355
a(I91
I11
F-0.06976619236172575
g4
tp356
a(I92
I11
F-0.039259772280502876
g4
tp357
a(I93
I11
F-0.08937668421523585
g4
tp358
a(I94
I11
F-0.18980313286485023
g4
tp359
a(I95
I11
F-0.6437422310520428
g4
tp360
a(I96
I11
F-1.0914974220398592
g12
tp361
a(I97
I11
F-0.4463036561752363
g12
tp362
a(I12
I12
F-0.13832515405139142
g4
tp363
a(I13
I12
F-0.029891406419109992
g4
tp364
a(I14
I12
F-0.026068744709790634
g4
tp365
a(I15
I12
F-0.3105105648673306
g4
tp366
a(I16
I12
F-0.8367318559253906
g1
tp367
a(I17
I12
F-0.6402409735036118
g1
tp368
a(I18
I12
F-1.1069872032053105
g1
tp369
a(I19
I12
F-0.9174462192361595
g12
tp370
a(I20
I12
F-0.5555769747688106
g12
tp371
a(I21
I12
F-0.5924105283170985
g131
tp372
a(I22
I12
F-0.7385881794776492
g131
tp373
a(I23
I12
F-0.3175957746198717
g131
tp374
a(I24
I12
F-0.33367857039627563
g131
tp375
a(I25
I12
F-1.0724955450738098
g1
tp376
a(I26
I12
F-1.262664563749396
g4
tp377
a(I27
I12
F-0.6268513200739083
g4
tp378
a(I28
I12
F-0.49408221027549387
g4
tp379
a(I29
I12
F-0.42161468967406346
g4
tp380
a(I30
I12
F-0.7828423822716144
g12
tp381
a(I31
I12
F-0.0204167052992346
g12
tp382
a(I32
I12
F-0.008718964698539652
g12
tp383
a(I33
I12
F-0.2783394982427234
g12
tp384
a(I34
I12
F-1.2590908494613844
g131
tp385
a(I35
I12
F-1.1491978904923068
g150
tp386
a(I36
I12
F-1.3175564594141387
g4
tp387
a(I37
I12
F-0.8688789923490914
g4
tp388
a(I38
I12
F-0.5548168980160172
g32
tp389
a(I39
I12
F-1.1833211264437056
g32
tp390
a(I40
I12
F-0.554277269474961
g4
tp391
a(I41
I12
F-0.8206746043809203
g12
tp392
a(I42
I12
F-0.3682591397252244
g12
tp393
a(I43
I12
F-0.637631418103674
g1
tp394
a(I44
I12
F-1.0316057946302093
g1
tp395
a(I45
I12
F-0.8949770535802062
g4
tp396
a(I46
I12
F-1.1700958239336607
g131
tp397
a(I47
I12
F-0.9935131423856397
g12
tp398
a(I48
I12
F-0.9539105057117624
g12
tp399
a(I49
I12
F-0.6544229822957786
g1
tp400
a(I50
I12
F-0.4009745007653457
g1
tp401
a(I51
I12
F-1.362172227604717
g1
tp402
a(I52
I12
F-0.8087677843895537
g1
tp403
a(I53
I12
F-0.8235278103694132
g4
tp404
a(I54
I12
F-0.4927813453348756
g4
tp405
a(I55
I12
F-0.7044987040819471
g12
tp406
a(I56
I12
F-0.4272877977251767
g12
tp407
a(I57
I12
F-0.3673058138570851
g12
tp408
a(I58
I12
F-0.2006112220592622
g12
tp409
a(I59
I12
F-0.03926990994005164
g12
tp410
a(I60
I12
F-0.035109165756470176
g12
tp411
a(I61
I12
F-0.19617316662833414
g12
tp412
a(I62
I12
F-0.3226710483652784
g4
tp413
a(I63
I12
F-0.8543063697839828
g4
tp414
a(I64
I12
F-0.46522829224803103
g150
tp415
a(I65
I12
F-0.05804926421087397
g150
tp416
a(I66
I12
F-0.11970135188555754
g150
tp417
a(I67
I12
F-0.3743703093632002
g150
tp418
a(I68
I12
F-0.38735466907161725
g150
tp419
a(I69
I12
F-0.538646312461768
g333
tp420
a(I70
I12
F-0.3465896586992947
g333
tp421
a(I71
I12
F-0.7137975321066601
g333
tp422
a(I72
I12
F-0.8343852553030892
g333
tp423
a(I73
I12
F-0.46619737092063895
g150
tp424
a(I74
I12
F-0.10267999779799117
g150
tp425
a(I75
I12
F-0.15136796997792185
g150
tp426
a(I76
I12
F-0.24787907617734795
g150
tp427
a(I77
I12
F-0.6372549592154023
g4
tp428
a(I78
I12
F-0.05582624408655892
g4
tp429
a(I79
I12
F-0.014402038127518701
g4
tp430
a(I80
I12
F-0.022086370544526036
g4
tp431
a(I81
I12
F-0.08327620803096487
g4
tp432
a(I82
I12
F-0.8848098959031909
g333
tp433
a(I83
I12
F-0.283749353987554
g150
tp434
a(I84
I12
F-0.19045958892738638
g150
tp435
a(I85
I12
F-0.6438194614610117
g150
tp436
a(I86
I12
F-0.6745877143499802
g150
tp437
a(I87
I12
F-0.28184353620250624
g4
tp438
a(I88
I12
F-0.6359710223829117
g4
tp439
a(I89
I12
F-0.07267090211763519
g4
tp440
a(I90
I12
F-0.055782114109495955
g4
tp441
a(I91
I12
F-0.038599909821909195
g4
tp442
a(I92
I12
F-0.029924414325308207
g4
tp443
a(I93
I12
F-0.05809872478964831
g4
tp444
a(I94
I12
F-0.15834115241883664
g4
tp445
a(I95
I12
F-0.5058850629727494
g4
tp446
a(I96
I12
F-0.7614186627452985
g271
tp447
a(I97
I12
F-0.5209311442791676
g271
tp448
a(I13
I13
F-0.164508282398355
g4
tp449
a(I14
I13
F-0.027608402307001702
g4
tp450
a(I15
I13
F-0.03864913798392024
g4
tp451
a(I16
I13
F-0.652917137710108
g4
tp452
a(I17
I13
F-0.7813757090124811
g1
tp453
a(I18
I13
F-0.8758380407255053
g1
tp454
a(I19
I13
F-1.3352789773273934
g12
tp455
a(I20
I13
F-0.9925223644127407
g333
tp456
a(I21
I13
F-1.1089453256107054
g12
tp457
a(I22
I13
F-0.11988726112194906
g131
tp458
a(I23
I13
F-0.0561038119444206
g131
tp459
a(I24
I13
F-0.21467224638156174
g131
tp460
a(I25
I13
F-0.27868654114440145
g131
tp461
a(I26
I13
F-1.1868344195961331
g32
tp462
a(I27
I13
F-0.8199249172789846
g32
tp463
a(I28
I13
F-0.8940936126503614
g4
tp464
a(I29
I13
F-1.4099390831818044
g271
tp465
a(I30
I13
F-0.6044137651066276
g271
tp466
a(I31
I13
F-0.7441766238703633
g12
tp467
a(I32
I13
F-0.028092199910599053
g12
tp468
a(I33
I13
F-0.020692702354593338
g12
tp469
a(I34
I13
F-1.0611526532538256
g131
tp470
a(I35
I13
F-0.8661133212632711
g131
tp471
a(I36
I13
F-1.0054277143899455
g150
tp472
a(I37
I13
F-0.6343982680177999
g150
tp473
a(I38
I13
F-0.8493576413847218
g32
tp474
a(I39
I13
F-0.47618245658704994
g32
tp475
a(I40
I13
F-1.1678611735522062
g32
tp476
a(I41
I13
F-0.5430904919412921
g4
tp477
a(I42
I13
F-0.9342659882392153
g12
tp478
a(I43
I13
F-0.4304853684452585
g12
tp479
a(I44
I13
F-0.9040382357192498
g12
tp480
a(I45
I13
F-0.878799753972502
g333
tp481
a(I46
I13
F-0.20014670469158183
g333
tp482
a(I47
I13
F-0.9265331221719001
g333
tp483
a(I48
I13
F-0.529987398374946
g131
tp484
a(I49
I13
F-1.3289272318035663
g131
tp485
a(I50
I13
F-1.0436979636155925
g1
tp486
a(I51
I13
F-1.0565106113139606
g1
tp487
a(I52
I13
F-1.1126796218643618
g4
tp488
a(I53
I13
F-0.7588199453827161
g4
tp489
a(I54
I13
F-0.9139964729353567
g333
tp490
a(I55
I13
F-0.7433570635359958
g333
tp491
a(I56
I13
F-0.6898882337210875
g333
tp492
a(I57
I13
F-0.3966947863265327
g333
tp493
a(I58
I13
F-0.5924686873618327
g12
tp494
a(I59
I13
F-0.26344048177993357
g12
tp495
a(I60
I13
F-0.05363301185162356
g12
tp496
a(I61
I13
F-0.03358852238808803
g12
tp497
a(I62
I13
F-0.21774326890125287
g12
tp498
a(I63
I13
F-0.5406214378139136
g333
tp499
a(I64
I13
F-0.0619186253977638
g333
tp500
a(I65
I13
F-0.4915786595937605
g333
tp501
a(I66
I13
F-0.07994487181421933
g150
tp502
a(I67
I13
F-0.04260571016893077
g150
tp503
a(I68
I13
F-0.046890656603017083
g150
tp504
a(I69
I13
F-0.10517008970019627
g150
tp505
a(I70
I13
F-0.04823064521203595
g333
tp506
a(I71
I13
F-0.10308756113871638
g333
tp507
a(I72
I13
F-0.2661588977099158
g333
tp508
a(I73
I13
F-0.45748044798943116
g333
tp509
a(I74
I13
F-0.5743664236724326
g150
tp510
a(I75
I13
F-0.1346536236167329
g150
tp511
a(I76
I13
F-0.2281064193523705
g150
tp512
a(I77
I13
F-0.5339159463213163
g150
tp513
a(I78
I13
F-1.0428255312297907
g4
tp514
a(I79
I13
F-0.2817013024582595
g4
tp515
a(I80
I13
F-0.1570607797420361
g4
tp516
a(I81
I13
F-0.60716957641129
g4
tp517
a(I82
I13
F-0.21609174295567174
g333
tp518
a(I83
I13
F-0.11651666428495491
g333
tp519
a(I84
I13
F-0.4809447918453979
g150
tp520
a(I85
I13
F-0.17507853451904407
g150
tp521
a(I86
I13
F-0.5359354997056417
g150
tp522
a(I87
I13
F-0.5722816664444177
g150
tp523
a(I88
I13
F-0.6113745248836778
g4
tp524
a(I89
I13
F-1.0538089763977705
g4
tp525
a(I90
I13
F-0.09268406293831542
g4
tp526
a(I91
I13
F-0.054308579749358044
g4
tp527
a(I92
I13
F-0.035862186616800136
g4
tp528
a(I93
I13
F-0.025854901950385503
g4
tp529
a(I94
I13
F-0.05636945293192228
g4
tp530
a(I95
I13
F-0.16261539072310568
g4
tp531
a(I96
I13
F-0.4716386318478713
g4
tp532
a(I97
I13
F-0.8181909225433086
g271
tp533
a(I14
I14
F-0.028370944239777346
g4
tp534
a(I15
I14
F-0.04068296112218649
g4
tp535
a(I16
I14
F-0.6388536766046617
g4
tp536
a(I17
I14
F-0.8317220347207515
g1
tp537
a(I18
I14
F-1.0982752571047985
g1
tp538
a(I19
I14
F-1.555331902355602
S'D'
p539
tp540
a(I20
I14
F-0.8809033681225897
g333
tp541
a(I21
I14
F-1.0607852270780185
g131
tp542
a(I22
I14
F-0.2006310844274944
g131
tp543
a(I23
I14
F-0.09731476180009385
g131
tp544
a(I24
I14
F-0.4697885946993333
g131
tp545
a(I25
I14
F-0.4243107392173586
g1
tp546
a(I26
I14
F-0.8956735213999752
g32
tp547
a(I27
I14
F-0.7116965691018646
g32
tp548
a(I28
I14
F-1.05135536300288
g4
tp549
a(I29
I14
F-1.3112160455653217
g271
tp550
a(I30
I14
F-0.46003839279988423
g271
tp551
a(I31
I14
F-1.14903436534561
g271
tp552
a(I32
I14
F-0.10025610742265322
g12
tp553
a(I33
I14
F-0.04309575774253705
g12
tp554
a(I34
I14
F-1.151794432698985
g131
tp555
a(I35
I14
F-1.0876429968208825
g131
tp556
a(I36
I14
F-0.8165766540677739
g150
tp557
a(I37
I14
F-0.5248273739067588
g150
tp558
a(I38
I14
F-0.8703280366212094
g32
tp559
a(I39
I14
F-0.45768434638535505
g32
tp560
a(I40
I14
F-1.047462304205682
g32
tp561
a(I41
I14
F-0.6673433532427052
g4
tp562
a(I42
I14
F-1.2064824239006429
g4
tp563
a(I43
I14
F-0.8069442937082844
g12
tp564
a(I44
I14
F-0.916922225826431
g1
tp565
a(I45
I14
F-0.817572624377563
g333
tp566
a(I46
I14
F-0.21690741676114406
g333
tp567
a(I47
I14
F-0.9409979788595433
g333
tp568
a(I48
I14
F-0.4645696580784831
g131
tp569
a(I49
I14
F-1.2079009298876728
g131
tp570
a(I50
I14
F-1.254287370836186
g32
tp571
a(I51
I14
F-1.0181013181036689
g1
tp572
a(I52
I14
F-0.8134123147751369
g1
tp573
a(I53
I14
F-0.558297771671934
g1
tp574
a(I54
I14
F-0.9791183183121078
g333
tp575
a(I55
I14
F-0.7576171416886358
g333
tp576
a(I56
I14
F-0.6462503303569994
g333
tp577
a(I57
I14
F-0.3980184725488081
g333
tp578
a(I58
I14
F-0.5112223705258456
g12
tp579
a(I59
I14
F-0.3813051468483892
g12
tp580
a(I60
I14
F-0.09697412560725226
g12
tp581
a(I61
I14
F-0.11242195198693317
g12
tp582
a(I62
I14
F-0.3267281748988145
g12
tp583
a(I63
I14
F-0.6076396545905539
g333
tp584
a(I64
I14
F-0.0676362823317101
g333
tp585
a(I65
I14
F-0.35031015055178044
g333
tp586
a(I66
I14
F-0.1532960660865837
g150
tp587
a(I67
I14
F-0.03905411017085854
g150
tp588
a(I68
I14
F-0.03697124305100096
g150
tp589
a(I69
I14
F-0.10567269157957083
g150
tp590
a(I70
I14
F-0.07312693158579125
g333
tp591
a(I71
I14
F-0.1407425974686106
g333
tp592
a(I72
I14
F-0.29507440148014297
g333
tp593
a(I73
I14
F-0.8499536550679274
g32
tp594
a(I74
I14
F-0.8015693841230199
g150
tp595
a(I75
I14
F-0.24701729936440345
g150
tp596
a(I76
I14
F-0.36223588793707706
g150
tp597
a(I77
I14
F-0.6299495785768423
g150
tp598
a(I78
I14
F-1.0291478359375945
g4
tp599
a(I79
I14
F-0.26483004470989935
g4
tp600
a(I80
I14
F-0.1467710321891562
g4
tp601
a(I81
I14
F-0.5271111419576853
g4
tp602
a(I82
I14
F-0.24695497060246172
g333
tp603
a(I83
I14
F-0.15079592414885715
g333
tp604
a(I84
I14
F-0.2956521770659747
g150
tp605
a(I85
I14
F-0.09680196997646728
g150
tp606
a(I86
I14
F-0.33511885087110693
g150
tp607
a(I87
I14
F-0.4153827349643982
g150
tp608
a(I88
I14
F-0.5342476049061324
g4
tp609
a(I89
I14
F-0.3124217194764286
g4
tp610
a(I90
I14
F-0.10406430071256705
g4
tp611
a(I91
I14
F-0.04769080260604798
g4
tp612
a(I92
I14
F-0.03818118404318192
g4
tp613
a(I93
I14
F-0.03841681018222569
g4
tp614
a(I94
I14
F-0.08919472060057329
g4
tp615
a(I95
I14
F-0.2690672477754963
g4
tp616
a(I96
I14
F-0.7128382548324241
g4
tp617
a(I97
I14
F-0.45525258401436314
g271
tp618
a(I15
I15
F-0.023297410995309662
g4
tp619
a(I16
I15
F-0.056163423273890255
g4
tp620
a(I17
I15
F-0.7017519681255691
g4
tp621
a(I18
I15
F-0.8657684484400999
g271
tp622
a(I19
I15
F-0.5656107174720845
g539
tp623
a(I20
I15
F-0.7669890938204228
g539
tp624
a(I21
I15
F-0.4825666874875122
g333
tp625
a(I22
I15
F-0.6493451447459951
g131
tp626
a(I23
I15
F-0.22582711433598726
g131
tp627
a(I24
I15
F-0.0889794589895951
g131
tp628
a(I25
I15
F-0.6365058159803784
g131
tp629
a(I26
I15
F-0.7173554915058766
g1
tp630
a(I27
I15
F-0.41780222226509606
g32
tp631
a(I28
I15
F-0.2501955288950984
g32
tp632
a(I29
I15
F-1.1875042279222285
g32
tp633
a(I30
I15
F-0.976656804902779
g271
tp634
a(I31
I15
F-0.2320592804994587
g271
tp635
a(I32
I15
F-1.2205917220918023
g271
tp636
a(I33
I15
F-0.28725067627818146
g12
tp637
a(I34
I15
F-0.1274540126970908
g12
tp638
a(I35
I15
F-0.9697797339828551
g131
tp639
a(I36
I15
F-1.0544644344461112
g131
tp640
a(I37
I15
F-0.6267901197830962
g150
tp641
a(I38
I15
F-0.5280555834767804
g150
tp642
a(I39
I15
F-0.8645741920628789
g32
tp643
a(I40
I15
F-0.429286212778821
g32
tp644
a(I41
I15
F-1.0436452226310728
g32
tp645
a(I42
I15
F-0.6483543533942296
g4
tp646
a(I43
I15
F-1.1687864361336278
g4
tp647
a(I44
I15
F-1.092079066827391
g271
tp648
a(I45
I15
F-1.189521592163742
g12
tp649
a(I46
I15
F-0.23755365332553596
g333
tp650
a(I47
I15
F-0.08822351124531745
g333
tp651
a(I48
I15
F-0.5337900651954365
g333
tp652
a(I49
I15
F-0.556765796038876
g131
tp653
a(I50
I15
F-1.1680576788596275
g131
tp654
a(I51
I15
F-1.0315129275708017
g32
tp655
a(I52
I15
F-1.422962563367714
g1
tp656
a(I53
I15
F-0.4915130397690011
g1
tp657
a(I54
I15
F-0.5163352692835665
g4
tp658
a(I55
I15
F-0.38204000954411876
g333
tp659
a(I56
I15
F-0.5225085785271021
g333
tp660
a(I57
I15
F-0.43042126243992723
g333
tp661
a(I58
I15
F-0.18991792136843788
g333
tp662
a(I59
I15
F-1.0245885063559994
g333
tp663
a(I60
I15
F-0.5480324303909498
g12
tp664
a(I61
I15
F-0.1363085253335687
g12
tp665
a(I62
I15
F-0.2503659446221463
g12
tp666
a(I63
I15
F-0.6171754518872762
g12
tp667
a(I64
I15
F-0.21074676493631286
g333
tp668
a(I65
I15
F-0.023527778536412264
g333
tp669
a(I66
I15
F-0.3731950329231996
g333
tp670
a(I67
I15
F-0.16108329406132335
g150
tp671
a(I68
I15
F-0.06003208375418893
g150
tp672
a(I69
I15
F-0.07245984697545219
g150
tp673
a(I70
I15
F-0.4306278595135038
g150
tp674
a(I71
I15
F-0.07016275743251293
g333
tp675
a(I72
I15
F-0.24885711202674762
g333
tp676
a(I73
I15
F-0.4225309486620882
g333
tp677
a(I74
I15
F-0.566272409376698
g32
tp678
a(I75
I15
F-1.1012279495883606
g32
tp679
a(I76
I15
F-0.5059708613281196
g150
tp680
a(I77
I15
F-0.6676852559154198
g333
tp681
a(I78
I15
F-0.361487441402076
g333
tp682
a(I79
I15
F-0.4901012628175175
g333
tp683
a(I80
I15
F-0.2129453090116207
g333
tp684
a(I81
I15
F-0.33642711910214684
g333
tp685
a(I82
I15
F-0.23581968615188725
g333
tp686
a(I83
I15
F-0.1319569467538788
g333
tp687
a(I84
I15
F-0.0983871539172749
g333
tp688
a(I85
I15
F-0.5085729033324826
g150
tp689
a(I86
I15
F-0.09050862708731462
g150
tp690
a(I87
I15
F-0.2872607683191264
g150
tp691
a(I88
I15
F-0.4437146485526669
g150
tp692
a(I89
I15
F-0.8436208515607552
g333
tp693
a(I90
I15
F-0.40642781532386796
g4
tp694
a(I91
I15
F-0.10102642925178942
g4
tp695
a(I92
I15
F-0.045256231937001665
g4
tp696
a(I93
I15
F-0.03246850175836362
g4
tp697
a(I94
I15
F-0.02600740568112894
g4
tp698
a(I95
I15
F-0.09569628932662637
g4
tp699
a(I96
I15
F-0.2508388327006291
g4
tp700
a(I97
I15
F-0.6360945442769386
g4
tp701
a(I16
I16
F-0.054526039846856285
g4
tp702
a(I17
I16
F-0.6618617371881594
g4
tp703
a(I18
I16
F-0.8361575873664076
g271
tp704
a(I19
I16
F-0.5691236714834174
g539
tp705
a(I20
I16
F-0.6596316324826752
g539
tp706
a(I21
I16
F-0.5039053779156694
g333
tp707
a(I22
I16
F-0.6867818193262788
g131
tp708
a(I23
I16
F-0.2912709535490959
g131
tp709
a(I24
I16
F-0.14060641828487747
g131
tp710
a(I25
I16
F-0.8353672871332877
g131
tp711
a(I26
I16
F-0.4271403805994602
g1
tp712
a(I27
I16
F-0.5549470315239569
g32
tp713
a(I28
I16
F-0.14847991132837293
g32
tp714
a(I29
I16
F-0.8626982226807444
g32
tp715
a(I30
I16
F-0.9867347331076934
g271
tp716
a(I31
I16
F-0.2038114365796091
g271
tp717
a(I32
I16
F-1.0428008716744668
g271
tp718
a(I33
I16
F-0.6304592620188625
g12
tp719
a(I34
I16
F-0.2565964952433169
g12
tp720
a(I35
I16
F-0.41091015690544264
g131
tp721
a(I36
I16
F-1.063886934022964
g150
tp722
a(I37
I16
F-0.6276831013929713
g150
tp723
a(I38
I16
F-0.6346100682817328
g150
tp724
a(I39
I16
F-0.6097330192832825
g32
tp725
a(I40
I16
F-0.2996316218472694
g32
tp726
a(I41
I16
F-0.6378087029297409
g32
tp727
a(I42
I16
F-0.9149357907006402
g4
tp728
a(I43
I16
F-1.076667279411659
g271
tp729
a(I44
I16
F-0.6762961734941366
g271
tp730
a(I45
I16
F-1.5065654686352599
g12
tp731
a(I46
I16
F-0.2642404448687566
g333
tp732
a(I47
I16
F-0.08672297809268402
g333
tp733
a(I48
I16
F-0.514589312470567
g333
tp734
a(I49
I16
F-0.7780321483212094
g131
tp735
a(I50
I16
F-1.00894474725998
g32
tp736
a(I51
I16
F-0.7296458591630389
g32
tp737
a(I52
I16
F-0.9998016805907309
g32
tp738
a(I53
I16
F-0.5785816740516943
g1
tp739
a(I54
I16
F-1.2159422553231851
g4
tp740
a(I55
I16
F-0.4588894386483933
g333
tp741
a(I56
I16
F-0.5493290772714603
g333
tp742
a(I57
I16
F-0.4639838074020284
g333
tp743
a(I58
I16
F-0.2821536139760763
g333
tp744
a(I59
I16
F-0.9489727813939375
g333
tp745
a(I60
I16
F-0.43250976809246433
g12
tp746
a(I61
I16
F-0.4884697655124798
g12
tp747
a(I62
I16
F-0.602920817058124
g12
tp748
a(I63
I16
F-1.2316105137250906
g12
tp749
a(I64
I16
F-0.20938064226047073
g333
tp750
a(I65
I16
F-0.02628577701026223
g333
tp751
a(I66
I16
F-0.44566037137056647
g333
tp752
a(I67
I16
F-0.20352315084867192
g150
tp753
a(I68
I16
F-0.08538880330325338
g150
tp754
a(I69
I16
F-0.11012795597933256
g150
tp755
a(I70
I16
F-0.7493861664413799
g150
tp756
a(I71
I16
F-0.25101131415041195
g333
tp757
a(I72
I16
F-0.6610258616713027
g333
tp758
a(I73
I16
F-0.7107558700005742
g333
tp759
a(I74
I16
F-0.3531195185899711
g32
tp760
a(I75
I16
F-0.21685961610907512
g32
tp761
a(I76
I16
F-0.7429858421295348
g150
tp762
a(I77
I16
F-0.6845525921544394
g333
tp763
a(I78
I16
F-0.46829184159970777
g333
tp764
a(I79
I16
F-0.714873737254173
g333
tp765
a(I80
I16
F-0.24450896016620907
g333
tp766
a(I81
I16
F-0.38204312288530223
g333
tp767
a(I82
I16
F-0.390553503828993
g333
tp768
a(I83
I16
F-0.5006820243994266
g333
tp769
a(I84
I16
F-0.3186267864773538
g333
tp770
a(I85
I16
F-0.5424074724300618
g150
tp771
a(I86
I16
F-0.08687707003993315
g150
tp772
a(I87
I16
F-0.2752112574854434
g150
tp773
a(I88
I16
F-0.5064738771100071
g150
tp774
a(I89
I16
F-0.8755045991448285
g333
tp775
a(I90
I16
F-0.39455667081740037
g4
tp776
a(I91
I16
F-0.14258047924781708
g4
tp777
a(I92
I16
F-0.0544779086820741
g4
tp778
a(I93
I16
F-0.050349768356609065
g4
tp779
a(I94
I16
F-0.05355177097328163
g4
tp780
a(I95
I16
F-0.20311148569059126
g4
tp781
a(I96
I16
F-0.5157785543946566
g4
tp782
a(I97
I16
F-0.46538256007473633
g271
tp783
a(I17
I17
F-0.10000799152493393
g4
tp784
a(I18
I17
F-1.0302193804190798
g271
tp785
a(I19
I17
F-0.3983701687417995
g539
tp786
a(I20
I17
F-0.09193327508255761
g539
tp787
a(I21
I17
F-0.3564326976098395
g539
tp788
a(I22
I17
F-0.5301501299883861
g333
tp789
a(I23
I17
F-1.2911306098777908
g333
tp790
a(I24
I17
F-0.35884644943461413
g131
tp791
a(I25
I17
F-0.20062441220568242
g131
tp792
a(I26
I17
F-0.8726838040481275
g131
tp793
a(I27
I17
F-0.6212267797644999
g1
tp794
a(I28
I17
F-0.21535707880248192
g32
tp795
a(I29
I17
F-0.062406764174335716
g32
tp796
a(I30
I17
F-0.7113720758293142
g32
tp797
a(I31
I17
F-0.8718395824373839
g271
tp798
a(I32
I17
F-0.8779099359425381
g271
tp799
a(I33
I17
F-1.0927665223715146
g539
tp800
a(I34
I17
F-1.1002354346383694
g12
tp801
a(I35
I17
F-0.48565473245295543
g12
tp802
a(I36
I17
F-0.4882005890397697
g131
tp803
a(I37
I17
F-1.0306139993275443
g150
tp804
a(I38
I17
F-1.0132388256446327
g150
tp805
a(I39
I17
F-0.9495679000542775
g150
tp806
a(I40
I17
F-0.6045365456846511
g32
tp807
a(I41
I17
F-0.2981790840576294
g32
tp808
a(I42
I17
F-0.6159838030121011
g32
tp809
a(I43
I17
F-1.217947060539214
g32
tp810
a(I44
I17
F-0.4410807078752048
g271
tp811
a(I45
I17
F-0.8497038125607782
g271
tp812
a(I46
I17
F-0.970954651194627
g539
tp813
a(I47
I17
F-0.30213803311173326
g333
tp814
a(I48
I17
F-0.07255062702401302
g333
tp815
a(I49
I17
F-0.3108663234320002
g333
tp816
a(I50
I17
F-0.8417967168072601
g131
tp817
a(I51
I17
F-0.7648297037808147
g32
tp818
a(I52
I17
F-0.499483605764269
g32
tp819
a(I53
I17
F-0.7738832710215436
g32
tp820
a(I54
I17
F-1.157943503567795
g1
tp821
a(I55
I17
F-1.1866268655828862
g333
tp822
a(I56
I17
F-0.801989442435243
g539
tp823
a(I57
I17
F-0.541447860454291
g539
tp824
a(I58
I17
F-0.6186870295661336
g333
tp825
a(I59
I17
F-0.3679484572701577
g333
tp826
a(I60
I17
F-0.6820581402408488
g333
tp827
a(I61
I17
F-0.8137960568137823
g12
tp828
a(I62
I17
F-1.0544617075744158
g12
tp829
a(I63
I17
F-1.2803854778925936
g12
tp830
a(I64
I17
F-1.2310097432355604
g333
tp831
a(I65
I17
F-0.14403887827585135
g333
tp832
a(I66
I17
F-0.01871048068381426
g333
tp833
a(I67
I17
F-0.24329566184107163
g333
tp834
a(I68
I17
F-0.6699496864324308
g150
tp835
a(I69
I17
F-0.35660469608344686
g150
tp836
a(I70
I17
F-0.5194154930742049
g150
tp837
a(I71
I17
F-0.47039943322436595
g333
tp838
a(I72
I17
F-0.4587815581609148
g333
tp839
a(I73
I17
F-0.7274221815298347
g32
tp840
a(I74
I17
F-0.6968465493340464
g32
tp841
a(I75
I17
F-0.28351686981702584
g32
tp842
a(I76
I17
F-0.15412626852732622
g32
tp843
a(I77
I17
F-1.010764191833778
g150
tp844
a(I78
I17
F-0.6560060218792538
g333
tp845
a(I79
I17
F-0.28084675489787614
g333
tp846
a(I80
I17
F-0.2143633421397317
g333
tp847
a(I81
I17
F-0.12625039826392215
g333
tp848
a(I82
I17
F-0.27278325696158773
g333
tp849
a(I83
I17
F-0.5713396084563422
g333
tp850
a(I84
I17
F-0.7660377647216173
g333
tp851
a(I85
I17
F-0.5395624064896993
g333
tp852
a(I86
I17
F-0.661394486225863
g333
tp853
a(I87
I17
F-0.11839120395590445
g150
tp854
a(I88
I17
F-0.30311253892931617
g150
tp855
a(I89
I17
F-0.6719000980855309
g150
tp856
a(I90
I17
F-0.7448017746129505
g333
tp857
a(I91
I17
F-0.39671827207066496
g4
tp858
a(I92
I17
F-0.122506184043528
g4
tp859
a(I93
I17
F-0.04732568833129981
g4
tp860
a(I94
I17
F-0.03763980420993534
g4
tp861
a(I95
I17
F-0.05654965945009901
g4
tp862
a(I96
I17
F-0.22387795467615332
g4
tp863
a(I97
I17
F-0.511203789658776
g4
tp864
a(I18
I18
F-1.0342350860560838
g271
tp865
a(I19
I18
F-0.40214979206919
g539
tp866
a(I20
I18
F-0.09174655316770194
g539
tp867
a(I21
I18
F-0.3713252860242559
g539
tp868
a(I22
I18
F-0.7117600230595034
g333
tp869
a(I23
I18
F-1.2707970912195112
g333
tp870
a(I24
I18
F-0.55966963705639
g131
tp871
a(I25
I18
F-0.31285251263153785
g131
tp872
a(I26
I18
F-0.9650915999056389
g1
tp873
a(I27
I18
F-0.7866847661626681
g1
tp874
a(I28
I18
F-0.1049254394351362
g32
tp875
a(I29
I18
F-0.2337829090852068
g32
tp876
a(I30
I18
F-0.44160458270985803
g32
tp877
a(I31
I18
F-0.850254146284188
g271
tp878
a(I32
I18
F-0.8739865257634912
g539
tp879
a(I33
I18
F-1.134429837300717
g539
tp880
a(I34
I18
F-1.2274345062810466
S'M'
p881
tp882
a(I35
I18
F-0.8040887938218834
g12
tp883
a(I36
I18
F-0.6719167783502502
g131
tp884
a(I37
I18
F-1.1251794472429957
g333
tp885
a(I38
I18
F-1.0516901119976496
g150
tp886
a(I39
I18
F-1.0486125558526616
g150
tp887
a(I40
I18
F-0.3681500873953265
g32
tp888
a(I41
I18
F-0.17050927717887812
g32
tp889
a(I42
I18
F-0.37034268826962036
g32
tp890
a(I43
I18
F-1.0396992023032023
g271
tp891
a(I44
I18
F-0.39063164932507116
g271
tp892
a(I45
I18
F-0.6889804673357047
g271
tp893
a(I46
I18
F-1.2604714940182409
g539
tp894
a(I47
I18
F-0.4275576333354874
g333
tp895
a(I48
I18
F-0.14035350484671505
g333
tp896
a(I49
I18
F-0.3387152020751033
g333
tp897
a(I50
I18
F-1.0467028813350474
g131
tp898
a(I51
I18
F-0.5361555001414153
g32
tp899
a(I52
I18
F-0.2823082976063061
g32
tp900
a(I53
I18
F-0.48150919456570496
g32
tp901
a(I54
I18
F-0.7301267269956073
g32
tp902
a(I55
I18
F-1.3570764753813849
g32
tp903
a(I56
I18
F-0.873410587798862
g539
tp904
a(I57
I18
F-0.5370221821380478
g539
tp905
a(I58
I18
F-0.6432955270079976
g333
tp906
a(I59
I18
F-0.40908203489554446
g333
tp907
a(I60
I18
F-0.8357436826455074
g333
tp908
a(I61
I18
F-1.344028489884936
g12
tp909
a(I62
I18
F-1.3293318202423174
g12
tp910
a(I63
I18
F-1.094206722083381
g881
tp911
a(I64
I18
F-0.893525268050398
g881
tp912
a(I65
I18
F-0.21120977166603458
g333
tp913
a(I66
I18
F-0.027671933270459057
g333
tp914
a(I67
I18
F-0.33557580277455445
g333
tp915
a(I68
I18
F-0.5105947667702745
g150
tp916
a(I69
I18
F-0.3475589817181821
g150
tp917
a(I70
I18
F-0.546717212978763
g150
tp918
a(I71
I18
F-1.071400957104952
g333
tp919
a(I72
I18
F-0.8993324745880369
g32
tp920
a(I73
I18
F-0.3885977169036256
g32
tp921
a(I74
I18
F-0.373604359448698
g32
tp922
a(I75
I18
F-0.17030094154887343
g32
tp923
a(I76
I18
F-0.08577745543012177
g32
tp924
a(I77
I18
F-0.23086974428059445
g32
tp925
a(I78
I18
F-1.170052058606718
g32
tp926
a(I79
I18
F-0.5622468464061439
g333
tp927
a(I80
I18
F-0.4529439086430149
g333
tp928
a(I81
I18
F-0.3216634577751827
g333
tp929
a(I82
I18
F-0.48618725014667524
g333
tp930
a(I83
I18
F-0.759742305517962
g333
tp931
a(I84
I18
F-0.7950734353930662
g881
tp932
a(I85
I18
F-0.8838202620396649
g881
tp933
a(I86
I18
F-1.0778823516891303
g150
tp934
a(I87
I18
F-0.2518880114592366
g150
tp935
a(I88
I18
F-0.3605434520666201
g150
tp936
a(I89
I18
F-0.8009385492213241
g150
tp937
a(I90
I18
F-1.0192882576893472
g333
tp938
a(I91
I18
F-0.47629548418147805
g4
tp939
a(I92
I18
F-0.13976668285727434
g4
tp940
a(I93
I18
F-0.030631134512901722
g4
tp941
a(I94
I18
F-0.053124023441510196
g4
tp942
a(I95
I18
F-0.08307859160051743
g4
tp943
a(I96
I18
F-0.25837269292879844
g4
tp944
a(I97
I18
F-0.6489011266827405
g4
tp945
a(I19
I19
F-0.36959362554040764
g539
tp946
a(I20
I19
F-0.05904974256711207
g539
tp947
a(I21
I19
F-0.04386449891662876
g539
tp948
a(I22
I19
F-0.275784042594394
g539
tp949
a(I23
I19
F-0.37170315688800687
g539
tp950
a(I24
I19
F-1.2420619177611585
g333
tp951
a(I25
I19
F-0.7157681054562616
g131
tp952
a(I26
I19
F-0.48081543446638575
g131
tp953
a(I27
I19
F-1.2571728728248883
g1
tp954
a(I28
I19
F-0.30427052894951695
g32
tp955
a(I29
I19
F-0.029071448197574797
g32
tp956
a(I30
I19
F-0.17230238548207294
g32
tp957
a(I31
I19
F-0.4788927353082066
g32
tp958
a(I32
I19
F-1.3125551221725111
g271
tp959
a(I33
I19
F-0.3800714373383496
g539
tp960
a(I34
I19
F-1.0764075705896206
g539
tp961
a(I35
I19
F-1.0074771410188759
g881
tp962
a(I36
I19
F-1.004346695757615
g12
tp963
a(I37
I19
F-1.099114355190664
g131
tp964
a(I38
I19
F-1.277638799981025
g333
tp965
a(I39
I19
F-0.9456084788579134
g32
tp966
a(I40
I19
F-0.8902735473978817
g32
tp967
a(I41
I19
F-0.34636605016002586
g32
tp968
a(I42
I19
F-0.1516501847472891
g32
tp969
a(I43
I19
F-0.19259312887157165
g32
tp970
a(I44
I19
F-1.0177240741289602
g32
tp971
a(I45
I19
F-0.7894308478058241
g271
tp972
a(I46
I19
F-0.6520727294940052
g881
tp973
a(I47
I19
F-0.8874205225494156
g881
tp974
a(I48
I19
F-0.7458977045189499
g333
tp975
a(I49
I19
F-0.19476022820493366
g333
tp976
a(I50
I19
F-0.3142417333056703
g333
tp977
a(I51
I19
F-1.23488821275862
g131
tp978
a(I52
I19
F-0.1902266212372295
g32
tp979
a(I53
I19
F-0.10451081791503856
g32
tp980
a(I54
I19
F-0.11301447623037844
g32
tp981
a(I55
I19
F-0.3209579840242055
g32
tp982
a(I56
I19
F-0.9510627948199094
g881
tp983
a(I57
I19
F-0.5689614649793263
g539
tp984
a(I58
I19
F-0.39389168051921236
g539
tp985
a(I59
I19
F-0.9671730502618863
g539
tp986
a(I60
I19
F-0.8128772798314614
g333
tp987
a(I61
I19
F-1.2351255588851149
g881
tp988
a(I62
I19
F-1.3095883229361203
g881
tp989
a(I63
I19
F-0.9099751015742306
g881
tp990
a(I64
I19
F-0.46032541484873524
g881
tp991
a(I65
I19
F-0.48131933810929445
g881
tp992
a(I66
I19
F-0.2543293605796123
g333
tp993
a(I67
I19
F-0.030933718276977887
g333
tp994
a(I68
I19
F-0.2141758556872239
g333
tp995
a(I69
I19
F-0.6881081533824663
g333
tp996
a(I70
I19
F-0.7625109736883424
g150
tp997
a(I71
I19
F-1.2901172034845814
g150
tp998
a(I72
I19
F-0.8435660142324207
g881
tp999
a(I73
I19
F-0.9719606352927642
g32
tp1000
a(I74
I19
F-0.46187549849600956
g32
tp1001
a(I75
I19
F-0.3879415075664962
g32
tp1002
a(I76
I19
F-0.13836791068351553
g32
tp1003
a(I77
I19
F-0.06865834475784335
g32
tp1004
a(I78
I19
F-0.12914957686115858
g32
tp1005
a(I79
I19
F-0.8214191514645836
g32
tp1006
a(I80
I19
F-1.0662888797301806
g333
tp1007
a(I81
I19
F-0.7967244753881129
g333
tp1008
a(I82
I19
F-0.6556958193641989
g333
tp1009
a(I83
I19
F-0.8546818686121019
g333
tp1010
a(I84
I19
F-0.8264798144125203
g881
tp1011
a(I85
I19
F-0.45704032842843345
g881
tp1012
a(I86
I19
F-0.4130203665955622
g881
tp1013
a(I87
I19
F-1.031197778566601
g881
tp1014
a(I88
I19
F-0.35003887914078446
g150
tp1015
a(I89
I19
F-0.45340688610984264
g150
tp1016
a(I90
I19
F-0.8598381352906558
g150
tp1017
a(I91
I19
F-1.1026897700381808
g333
tp1018
a(I92
I19
F-0.38064335713474934
g4
tp1019
a(I93
I19
F-0.11700230103982844
g4
tp1020
a(I94
I19
F-0.024750476307422973
g4
tp1021
a(I95
I19
F-0.06037002604536591
g4
tp1022
a(I96
I19
F-0.09610839270358858
g4
tp1023
a(I97
I19
F-0.2861538665728422
g4
tp1024
a(I20
I20
F-0.05545119527359175
g539
tp1025
a(I21
I20
F-0.044358370374920526
g539
tp1026
a(I22
I20
F-0.26959615179876434
g539
tp1027
a(I23
I20
F-0.4787543877228841
g539
tp1028
a(I24
I20
F-1.3511933204570865
g333
tp1029
a(I25
I20
F-1.097905770769293
g131
tp1030
a(I26
I20
F-0.6521881394138991
g131
tp1031
a(I27
I20
F-1.0493099899662905
g32
tp1032
a(I28
I20
F-0.20938915230120336
g32
tp1033
a(I29
I20
F-0.03172414935662352
g32
tp1034
a(I30
I20
F-0.2269438292542785
g32
tp1035
a(I31
I20
F-0.5609950046273448
g881
tp1036
a(I32
I20
F-1.1677767338078882
g881
tp1037
a(I33
I20
F-0.4762418076238814
g539
tp1038
a(I34
I20
F-1.1692477850698324
g539
tp1039
a(I35
I20
F-0.7900523989503766
g881
tp1040
a(I36
I20
F-1.2145673192387414
g12
tp1041
a(I37
I20
F-1.2772836551474924
g131
tp1042
a(I38
I20
F-1.3746935712799164
g333
tp1043
a(I39
I20
F-0.5123301044289239
g32
tp1044
a(I40
I20
F-0.8106174367824182
g32
tp1045
a(I41
I20
F-0.2790042466716049
g32
tp1046
a(I42
I20
F-0.10021590597684682
g32
tp1047
a(I43
I20
F-0.15737609757960253
g32
tp1048
a(I44
I20
F-0.9194091150114726
g881
tp1049
a(I45
I20
F-0.6555939478228618
g881
tp1050
a(I46
I20
F-0.4097888228434948
g881
tp1051
a(I47
I20
F-0.4817159707842294
g881
tp1052
a(I48
I20
F-1.0454936830179744
g333
tp1053
a(I49
I20
F-0.35777597145857365
g333
tp1054
a(I50
I20
F-0.4115854405537794
g333
tp1055
a(I51
I20
F-1.287237237887957
g131
tp1056
a(I52
I20
F-0.16454082166766312
g32
tp1057
a(I53
I20
F-0.08486356286559196
g32
tp1058
a(I54
I20
F-0.08456100939182491
g32
tp1059
a(I55
I20
F-0.2936492072847147
g32
tp1060
a(I56
I20
F-0.5229620026276933
g881
tp1061
a(I57
I20
F-0.8881983960726124
g881
tp1062
a(I58
I20
F-0.5256472861103739
g539
tp1063
a(I59
I20
F-1.0032497712680053
g539
tp1064
a(I60
I20
F-0.8440518639738266
g333
tp1065
a(I61
I20
F-1.1666160193887831
g881
tp1066
a(I62
I20
F-0.9354687871798099
g881
tp1067
a(I63
I20
F-0.3758837647388382
g881
tp1068
a(I64
I20
F-0.27650915370678103
g881
tp1069
a(I65
I20
F-0.24271159068890985
g881
tp1070
a(I66
I20
F-0.35937501448121023
g333
tp1071
a(I67
I20
F-0.07176105072178501
g333
tp1072
a(I68
I20
F-0.21166545269367604
g333
tp1073
a(I69
I20
F-0.6711054872413402
g333
tp1074
a(I70
I20
F-0.8068092834009324
g150
tp1075
a(I71
I20
F-1.2139768992387823
g881
tp1076
a(I72
I20
F-0.4713450647402131
g881
tp1077
a(I73
I20
F-0.4622299118135304
g881
tp1078
a(I74
I20
F-0.7686637150633698
g32
tp1079
a(I75
I20
F-0.5905608854877262
g32
tp1080
a(I76
I20
F-0.17123527912584585
g32
tp1081
a(I77
I20
F-0.07082221173072645
g32
tp1082
a(I78
I20
F-0.09915336168154688
g32
tp1083
a(I79
I20
F-0.45285236450117605
g32
tp1084
a(I80
I20
F-1.1348999574638527
g881
tp1085
a(I81
I20
F-0.5830879133959895
g881
tp1086
a(I82
I20
F-0.5262309805894626
g881
tp1087
a(I83
I20
F-0.5651134369109612
g881
tp1088
a(I84
I20
F-0.5121183685859599
g881
tp1089
a(I85
I20
F-0.35290885094272945
g881
tp1090
a(I86
I20
F-0.28757402288267253
g881
tp1091
a(I87
I20
F-0.6286262673622461
g881
tp1092
a(I88
I20
F-0.601264773135761
g150
tp1093
a(I89
I20
F-0.6954560569525872
g150
tp1094
a(I90
I20
F-1.1414059544931099
g32
tp1095
a(I91
I20
F-1.389923465392849
g333
tp1096
a(I92
I20
F-0.5997049921854593
g4
tp1097
a(I93
I20
F-0.22885996170867182
g4
tp1098
a(I94
I20
F-0.040915358585572936
g4
tp1099
a(I95
I20
F-0.01576580564441585
g4
tp1100
a(I96
I20
F-0.1597060853990579
g4
tp1101
a(I97
I20
F-0.3518161474546243
g4
tp1102
a(I21
I21
F-0.037162831713099864
g539
tp1103
a(I22
I21
F-0.03788331038254996
g539
tp1104
a(I23
I21
F-0.417572415785165
g539
tp1105
a(I24
I21
F-0.6023058090811492
g539
tp1106
a(I25
I21
F-1.3913040748736567
g333
tp1107
a(I26
I21
F-0.8714676519975556
g32
tp1108
a(I27
I21
F-0.9971359379950149
g131
tp1109
a(I28
I21
F-0.603420651734389
g32
tp1110
a(I29
I21
F-0.108433546159252
g32
tp1111
a(I30
I21
F-0.08957392670715056
g32
tp1112
a(I31
I21
F-0.670542823849386
g881
tp1113
a(I32
I21
F-0.24301176270101524
g881
tp1114
a(I33
I21
F-0.9160839208631509
g881
tp1115
a(I34
I21
F-0.4603308722446247
g539
tp1116
a(I35
I21
F-1.0149885041151505
g881
tp1117
a(I36
I21
F-0.6584647776664341
g881
tp1118
a(I37
I21
F-1.0902044926977636
g881
tp1119
a(I38
I21
F-1.5171935518333706
g881
tp1120
a(I39
I21
F-1.3276439046693835
g32
tp1121
a(I40
I21
F-0.426379549209262
g32
tp1122
a(I41
I21
F-0.7831640002371704
g32
tp1123
a(I42
I21
F-0.24937117643186044
g32
tp1124
a(I43
I21
F-0.04822895440045633
g32
tp1125
a(I44
I21
F-0.44592089762541226
g32
tp1126
a(I45
I21
F-0.4342483822309941
g881
tp1127
a(I46
I21
F-0.30434724126336693
g881
tp1128
a(I47
I21
F-0.1830100597711164
g881
tp1129
a(I48
I21
F-0.26541223752135984
g881
tp1130
a(I49
I21
F-0.8641033629805399
g881
tp1131
a(I50
I21
F-0.45158292363411645
g333
tp1132
a(I51
I21
F-0.48304037896901236
g333
tp1133
a(I52
I21
F-1.0411700976933673
g32
tp1134
a(I53
I21
F-0.06779355457269608
g32
tp1135
a(I54
I21
F-0.08538163929862663
g32
tp1136
a(I55
I21
F-0.2205626307584161
g32
tp1137
a(I56
I21
F-0.7409105958630864
g881
tp1138
a(I57
I21
F-0.17937670179918516
g881
tp1139
a(I58
I21
F-0.6214120433530718
g881
tp1140
a(I59
I21
F-0.6129477563040211
g539
tp1141
a(I60
I21
F-0.9672571447870641
g881
tp1142
a(I61
I21
F-0.6876085377153502
g881
tp1143
a(I62
I21
F-0.6004415260971792
g881
tp1144
a(I63
I21
F-0.44670705081797507
g881
tp1145
a(I64
I21
F-0.14615615213564856
g881
tp1146
a(I65
I21
F-0.13372031564498302
g881
tp1147
a(I66
I21
F-0.18640896973482413
g881
tp1148
a(I67
I21
F-0.44605271195114166
g333
tp1149
a(I68
I21
F-0.18268279355294453
g333
tp1150
a(I69
I21
F-0.20693140265870993
g333
tp1151
a(I70
I21
F-0.6119565843810436
g333
tp1152
a(I71
I21
F-1.2347892263656564
g150
tp1153
a(I72
I21
F-0.655988065491438
g881
tp1154
a(I73
I21
F-0.2142055223486657
g881
tp1155
a(I74
I21
F-0.19269445951426434
g881
tp1156
a(I75
I21
F-0.3593533626002929
g881
tp1157
a(I76
I21
F-0.526816845696419
g881
tp1158
a(I77
I21
F-0.34467126255783626
g32
tp1159
a(I78
I21
F-0.13843653466420014
g32
tp1160
a(I79
I21
F-0.14122771925335573
g32
tp1161
a(I80
I21
F-0.42073705830376573
g32
tp1162
a(I81
I21
F-0.5086190233993851
g881
tp1163
a(I82
I21
F-0.2890625627886623
g881
tp1164
a(I83
I21
F-0.28911060085410817
g881
tp1165
a(I84
I21
F-0.3381216129991611
g881
tp1166
a(I85
I21
F-0.31385716801813474
g881
tp1167
a(I86
I21
F-0.14927995379144354
g881
tp1168
a(I87
I21
F-0.12932269357198248
g881
tp1169
a(I88
I21
F-0.47818257453584306
g881
tp1170
a(I89
I21
F-0.7032077749870446
g150
tp1171
a(I90
I21
F-0.7300529400196107
g150
tp1172
a(I91
I21
F-1.1032713389228628
g32
tp1173
a(I92
I21
F-1.459880100378075
g4
tp1174
a(I93
I21
F-0.5932175904111127
g4
tp1175
a(I94
I21
F-0.2665317726557372
g4
tp1176
a(I95
I21
F-0.04841112743374211
g4
tp1177
a(I96
I21
F-0.019188532292599328
g4
tp1178
a(I97
I21
F-0.18280468864328955
g4
tp1179
a(I22
I22
F-0.03729493510192137
g539
tp1180
a(I23
I22
F-0.44286871894429475
g539
tp1181
a(I24
I22
F-0.6544875718015394
g539
tp1182
a(I25
I22
F-1.44356866891542
g333
tp1183
a(I26
I22
F-0.8015012771989377
g32
tp1184
a(I27
I22
F-0.8742128935734368
g32
tp1185
a(I28
I22
F-0.5162934205935894
g32
tp1186
a(I29
I22
F-0.09453087272566944
g32
tp1187
a(I30
I22
F-0.14755719797724745
g32
tp1188
a(I31
I22
F-0.38184347354175896
g881
tp1189
a(I32
I22
F-0.13962311057440857
g881
tp1190
a(I33
I22
F-0.8675811179318992
g539
tp1191
a(I34
I22
F-0.6089372076119184
g539
tp1192
a(I35
I22
F-0.7668444240265776
g881
tp1193
a(I36
I22
F-0.5380009812135563
g881
tp1194
a(I37
I22
F-0.8564114464052376
g881
tp1195
a(I38
I22
F-1.2622172045397737
g881
tp1196
a(I39
I22
F-1.4975567977151087
g881
tp1197
a(I40
I22
F-0.5715600976604707
g32
tp1198
a(I41
I22
F-0.40647734388162915
g32
tp1199
a(I42
I22
F-0.23775355977278836
g32
tp1200
a(I43
I22
F-0.054842129222305094
g32
tp1201
a(I44
I22
F-0.6940381979210578
g32
tp1202
a(I45
I22
F-0.32978318872774515
g881
tp1203
a(I46
I22
F-0.23774712937126458
g881
tp1204
a(I47
I22
F-0.13473063326407209
g881
tp1205
a(I48
I22
F-0.18407130514190237
g881
tp1206
a(I49
I22
F-0.6076831691613631
g881
tp1207
a(I50
I22
F-0.7039089689514646
g333
tp1208
a(I51
I22
F-0.6663510157024435
g333
tp1209
a(I52
I22
F-1.0463248077198388
g32
tp1210
a(I53
I22
F-0.07383879200313856
g32
tp1211
a(I54
I22
F-0.12080945652699163
g32
tp1212
a(I55
I22
F-0.3145732720510113
g32
tp1213
a(I56
I22
F-0.5718239713884044
g881
tp1214
a(I57
I22
F-0.13954078716871846
g881
tp1215
a(I58
I22
F-0.35428712500863196
g881
tp1216
a(I59
I22
F-0.8314328863549486
g539
tp1217
a(I60
I22
F-0.7064638649435262
g881
tp1218
a(I61
I22
F-0.5780329084079943
g881
tp1219
a(I62
I22
F-0.5764063612405875
g881
tp1220
a(I63
I22
F-0.4202353175215207
g881
tp1221
a(I64
I22
F-0.08919756607314709
g881
tp1222
a(I65
I22
F-0.05612881348695497
g881
tp1223
a(I66
I22
F-0.11072399415116056
g881
tp1224
a(I67
I22
F-0.6745446222862416
g333
tp1225
a(I68
I22
F-0.26331078093413735
g333
tp1226
a(I69
I22
F-0.2678353308700908
g333
tp1227
a(I70
I22
F-0.6430384724723347
g333
tp1228
a(I71
I22
F-1.3036890399582473
g150
tp1229
a(I72
I22
F-0.5261901044147202
g881
tp1230
a(I73
I22
F-0.10983281480504342
g881
tp1231
a(I74
I22
F-0.10372928312623553
g881
tp1232
a(I75
I22
F-0.1457882061645515
g881
tp1233
a(I76
I22
F-0.2792756823108174
g881
tp1234
a(I77
I22
F-0.6232994113846924
g32
tp1235
a(I78
I22
F-0.26195046714571785
g32
tp1236
a(I79
I22
F-0.19198248944793822
g32
tp1237
a(I80
I22
F-0.5013459879073909
g32
tp1238
a(I81
I22
F-0.1957751162106208
g881
tp1239
a(I82
I22
F-0.1314316551655125
g881
tp1240
a(I83
I22
F-0.14431390404582087
g881
tp1241
a(I84
I22
F-0.17574659051543698
g881
tp1242
a(I85
I22
F-0.1776459474793464
g881
tp1243
a(I86
I22
F-0.10212059518572164
g881
tp1244
a(I87
I22
F-0.10870032473078554
g881
tp1245
a(I88
I22
F-0.4038901815460215
g881
tp1246
a(I89
I22
F-0.7906425809992536
g881
tp1247
a(I90
I22
F-0.9600174776025721
g150
tp1248
a(I91
I22
F-0.9860711910466372
g32
tp1249
a(I92
I22
F-1.4179669449791594
g32
tp1250
a(I93
I22
F-0.8627516280748059
g4
tp1251
a(I94
I22
F-0.4651936905700687
g4
tp1252
a(I95
I22
F-0.0998793461650705
g4
tp1253
a(I96
I22
F-0.034825824538033484
g4
tp1254
a(I97
I22
F-0.05799680636552111
g4
tp1255
a(I23
I23
F-0.06680474817849887
g539
tp1256
a(I24
I23
F-0.5939824057977499
g539
tp1257
a(I25
I23
F-0.7423351667350281
g539
tp1258
a(I26
I23
F-1.4366251662560612
g881
tp1259
a(I27
I23
F-0.7286215336762571
g32
tp1260
a(I28
I23
F-0.6842608715777841
g32
tp1261
a(I29
I23
F-0.35220839966942397
g32
tp1262
a(I30
I23
F-0.09091720324036705
g32
tp1263
a(I31
I23
F-0.4856787498838388
g32
tp1264
a(I32
I23
F-0.14309085446167752
g881
tp1265
a(I33
I23
F-0.08371940882557313
g881
tp1266
a(I34
I23
F-0.9134017336982684
g881
tp1267
a(I35
I23
F-0.7097982458223098
g539
tp1268
a(I36
I23
F-0.6551059941494627
g881
tp1269
a(I37
I23
F-0.31834216742316496
g881
tp1270
a(I38
I23
F-0.47769548091975483
g881
tp1271
a(I39
I23
F-0.8458120743208406
g881
tp1272
a(I40
I23
F-1.307715158226497
g881
tp1273
a(I41
I23
F-0.5904648598091811
g32
tp1274
a(I42
I23
F-0.3918372893249512
g32
tp1275
a(I43
I23
F-0.18156019162064363
g32
tp1276
a(I44
I23
F-0.17912239845081823
g32
tp1277
a(I45
I23
F-0.1813848298347579
g881
tp1278
a(I46
I23
F-0.18195277303351967
g881
tp1279
a(I47
I23
F-0.15480249902553514
g881
tp1280
a(I48
I23
F-0.07112228858657564
g881
tp1281
a(I49
I23
F-0.1317445075924512
g881
tp1282
a(I50
I23
F-0.48149890913420434
g881
tp1283
a(I51
I23
F-0.8380590002452827
g333
tp1284
a(I52
I23
F-1.0170613515310871
g333
tp1285
a(I53
I23
F-0.9415298182061358
g32
tp1286
a(I54
I23
F-0.11814075141188828
g32
tp1287
a(I55
I23
F-0.46532441557969545
g32
tp1288
a(I56
I23
F-0.6438739323264729
g881
tp1289
a(I57
I23
F-0.17577290635767356
g881
tp1290
a(I58
I23
F-0.08967567442365233
g881
tp1291
a(I59
I23
F-0.2416506406888526
g881
tp1292
a(I60
I23
F-0.5071728605403367
g881
tp1293
a(I61
I23
F-0.38451667960691555
g881
tp1294
a(I62
I23
F-0.3244765941943033
g881
tp1295
a(I63
I23
F-0.30963766136290166
g881
tp1296
a(I64
I23
F-0.22913476048407644
g881
tp1297
a(I65
I23
F-0.054081325701368615
g881
tp1298
a(I66
I23
F-0.04514245147959135
g881
tp1299
a(I67
I23
F-0.08184053283610679
g881
tp1300
a(I68
I23
F-0.6144191543933266
g881
tp1301
a(I69
I23
F-0.5588992494379257
g333
tp1302
a(I70
I23
F-0.5178091714772945
g333
tp1303
a(I71
I23
F-0.8862376061933668
g333
tp1304
a(I72
I23
F-1.162677269573626
g881
tp1305
a(I73
I23
F-0.3125892452423842
g881
tp1306
a(I74
I23
F-0.056389918871287636
g881
tp1307
a(I75
I23
F-0.05869523889158078
g881
tp1308
a(I76
I23
F-0.0887631162889583
g881
tp1309
a(I77
I23
F-0.1754534331651958
g881
tp1310
a(I78
I23
F-0.5612837324648979
g881
tp1311
a(I79
I23
F-0.4660434519293614
g32
tp1312
a(I80
I23
F-0.5316379515962919
g32
tp1313
a(I81
I23
F-0.5268040438173845
g881
tp1314
a(I82
I23
F-0.08190454465094103
g881
tp1315
a(I83
I23
F-0.06739997009024412
g881
tp1316
a(I84
I23
F-0.08140509804857998
g881
tp1317
a(I85
I23
F-0.11144150509107717
g881
tp1318
a(I86
I23
F-0.09435700263801367
g881
tp1319
a(I87
I23
F-0.05601433031672734
g881
tp1320
a(I88
I23
F-0.082852946976918
g881
tp1321
a(I89
I23
F-0.3284675714716602
g881
tp1322
a(I90
I23
F-0.7491379643933611
g881
tp1323
a(I91
I23
F-0.975677319694169
g150
tp1324
a(I92
I23
F-0.940078986161274
g32
tp1325
a(I93
I23
F-1.354923997342341
g32
tp1326
a(I94
I23
F-0.9960640853545961
g4
tp1327
a(I95
I23
F-0.5969685891180752
g4
tp1328
a(I96
I23
F-0.13256927385471098
g4
tp1329
a(I97
I23
F-0.04149907901689478
g4
tp1330
a(I24
I24
F-0.6262090989450547
g539
tp1331
a(I25
I24
F-0.7616651575299356
g539
tp1332
a(I26
I24
F-1.3762699734482082
g881
tp1333
a(I27
I24
F-0.7631508823616049
g32
tp1334
a(I28
I24
F-0.6316733285636557
g32
tp1335
a(I29
I24
F-0.32408719653204704
g32
tp1336
a(I30
I24
F-0.10033158304603614
g32
tp1337
a(I31
I24
F-0.5635166860974249
g32
tp1338
a(I32
I24
F-0.12236668457570775
g881
tp1339
a(I33
I24
F-0.07399893610699082
g881
tp1340
a(I34
I24
F-0.7940192695578102
g881
tp1341
a(I35
I24
F-0.663342420331971
g539
tp1342
a(I36
I24
F-0.55089144212126
g881
tp1343
a(I37
I24
F-0.2578450084178574
g881
tp1344
a(I38
I24
F-0.4363903877002668
g881
tp1345
a(I39
I24
F-0.7504760689076834
g881
tp1346
a(I40
I24
F-1.1866001231749406
g881
tp1347
a(I41
I24
F-0.6593981026525478
g32
tp1348
a(I42
I24
F-0.4054877901684895
g32
tp1349
a(I43
I24
F-0.3552035563478418
g32
tp1350
a(I44
I24
F-0.1922580875054755
g32
tp1351
a(I45
I24
F-0.1653972320660094
g881
tp1352
a(I46
I24
F-0.15965260314062507
g881
tp1353
a(I47
I24
F-0.13281377948702977
g881
tp1354
a(I48
I24
F-0.05897256256541641
g881
tp1355
a(I49
I24
F-0.1047344198875147
g881
tp1356
a(I50
I24
F-0.41320724358391897
g881
tp1357
a(I51
I24
F-0.9197308876867154
g333
tp1358
a(I52
I24
F-1.1107354699043892
g333
tp1359
a(I53
I24
F-0.9813596541251989
g32
tp1360
a(I54
I24
F-0.13331635934113287
g32
tp1361
a(I55
I24
F-0.502319309574989
g32
tp1362
a(I56
I24
F-0.6072115582198646
g881
tp1363
a(I57
I24
F-0.16062392363227998
g881
tp1364
a(I58
I24
F-0.07491562205905328
g881
tp1365
a(I59
I24
F-0.20715774267069165
g881
tp1366
a(I60
I24
F-0.3793910867742604
g881
tp1367
a(I61
I24
F-0.3142934840609659
g881
tp1368
a(I62
I24
F-0.2797981835163041
g881
tp1369
a(I63
I24
F-0.28398276139915846
g881
tp1370
a(I64
I24
F-0.2259495154679372
g881
tp1371
a(I65
I24
F-0.05318635135640308
g881
tp1372
a(I66
I24
F-0.037855739136859384
g881
tp1373
a(I67
I24
F-0.06471842167111992
g881
tp1374
a(I68
I24
F-0.14550395410499561
g881
tp1375
a(I69
I24
F-0.694551568751815
g333
tp1376
a(I70
I24
F-0.5538089809396565
g333
tp1377
a(I71
I24
F-0.9395990672298705
g333
tp1378
a(I72
I24
F-0.9950069439857072
g881
tp1379
a(I73
I24
F-0.27423814491747206
g881
tp1380
a(I74
I24
F-0.050743269017136175
g881
tp1381
a(I75
I24
F-0.04171519242353012
g881
tp1382
a(I76
I24
F-0.06061255369412351
g881
tp1383
a(I77
I24
F-0.11641982222369224
g881
tp1384
a(I78
I24
F-0.43715656285973004
g881
tp1385
a(I79
I24
F-0.5977075124141749
g32
tp1386
a(I80
I24
F-0.6383386148173851
g32
tp1387
a(I81
I24
F-0.4522089733880765
g881
tp1388
a(I82
I24
F-0.06816592449067271
g881
tp1389
a(I83
I24
F-0.09659340281498849
g881
tp1390
a(I84
I24
F-0.05769421391977852
g881
tp1391
a(I85
I24
F-0.08383339449268294
g881
tp1392
a(I86
I24
F-0.07052195531043566
g881
tp1393
a(I87
I24
F-0.045016655646173485
g881
tp1394
a(I88
I24
F-0.07077490708168963
g881
tp1395
a(I89
I24
F-0.3098613539714346
g881
tp1396
a(I90
I24
F-0.7127309495115908
g881
tp1397
a(I91
I24
F-1.0578175237996437
g150
tp1398
a(I92
I24
F-0.9230898558119622
g32
tp1399
a(I93
I24
F-1.337627348230342
g32
tp1400
a(I94
I24
F-1.1063173359099823
g881
tp1401
a(I95
I24
F-0.7241063402363531
g4
tp1402
a(I96
I24
F-0.18018904634817637
g4
tp1403
a(I97
I24
F-0.05721783217697865
g4
tp1404
a(I25
I25
F-0.7011463630967333
g539
tp1405
a(I26
I25
F-0.772330784508909
g539
tp1406
a(I27
I25
F-1.2248474537853116
g881
tp1407
a(I28
I25
F-0.9258556995645066
g32
tp1408
a(I29
I25
F-0.5931379322177076
g32
tp1409
a(I30
I25
F-0.28725794384441355
g32
tp1410
a(I31
I25
F-0.19794181121566282
g32
tp1411
a(I32
I25
F-0.5448942226087556
g881
tp1412
a(I33
I25
F-0.08076469643697058
g881
tp1413
a(I34
I25
F-0.0588571960114899
g881
tp1414
a(I35
I25
F-0.7345214204094838
g881
tp1415
a(I36
I25
F-0.6806204685042898
g539
tp1416
a(I37
I25
F-0.38301837011775736
g881
tp1417
a(I38
I25
F-0.15989878782410724
g881
tp1418
a(I39
I25
F-0.2999519228827182
g881
tp1419
a(I40
I25
F-0.67174240736211
g881
tp1420
a(I41
I25
F-1.170567433940378
g881
tp1421
a(I42
I25
F-0.6903124482946333
g32
tp1422
a(I43
I25
F-0.49527338971190515
g32
tp1423
a(I44
I25
F-0.7654806606643523
g32
tp1424
a(I45
I25
F-0.3827693230585909
g881
tp1425
a(I46
I25
F-0.08860972632326217
g881
tp1426
a(I47
I25
F-0.12467366900106211
g881
tp1427
a(I48
I25
F-0.08676743246621238
g881
tp1428
a(I49
I25
F-0.04466161588260386
g881
tp1429
a(I50
I25
F-0.09213074154910483
g881
tp1430
a(I51
I25
F-0.3600780646808128
g881
tp1431
a(I52
I25
F-0.654304384997722
g881
tp1432
a(I53
I25
F-0.8375595096265268
g881
tp1433
a(I54
I25
F-1.0886386948838505
g32
tp1434
a(I55
I25
F-0.29817271244467747
g32
tp1435
a(I56
I25
F-0.879877724778362
g881
tp1436
a(I57
I25
F-0.2632335571449787
g881
tp1437
a(I58
I25
F-0.09238971578168682
g881
tp1438
a(I59
I25
F-0.05393226847385267
g881
tp1439
a(I60
I25
F-0.14795236009365734
g881
tp1440
a(I61
I25
F-0.24513774357458673
g881
tp1441
a(I62
I25
F-0.20253225994175336
g881
tp1442
a(I63
I25
F-0.17821783338431338
g881
tp1443
a(I64
I25
F-0.18703824890709742
g881
tp1444
a(I65
I25
F-0.16206154399640357
g881
tp1445
a(I66
I25
F-0.04526178368988145
g881
tp1446
a(I67
I25
F-0.03041403667157338
g881
tp1447
a(I68
I25
F-0.04229947915158308
g881
tp1448
a(I69
I25
F-0.0878333949986314
g881
tp1449
a(I70
I25
F-0.753248110888127
g881
tp1450
a(I71
I25
F-0.8632547836106679
g333
tp1451
a(I72
I25
F-1.1442282761941733
g333
tp1452
a(I73
I25
F-0.7762529011274771
g881
tp1453
a(I74
I25
F-0.19214665805061423
g881
tp1454
a(I75
I25
F-0.034116611830905204
g881
tp1455
a(I76
I25
F-0.029000098412070054
g881
tp1456
a(I77
I25
F-0.04044387579594598
g881
tp1457
a(I78
I25
F-0.07927546782849511
g881
tp1458
a(I79
I25
F-0.2707817640366218
g881
tp1459
a(I80
I25
F-0.4584018001522284
g881
tp1460
a(I81
I25
F-0.4389095011160049
g881
tp1461
a(I82
I25
F-0.22559691112707692
g881
tp1462
a(I83
I25
F-0.040223502491612856
g881
tp1463
a(I84
I25
F-0.065373599344435
g881
tp1464
a(I85
I25
F-0.04192776244670267
g881
tp1465
a(I86
I25
F-0.054337857652363306
g881
tp1466
a(I87
I25
F-0.050001986309973455
g881
tp1467
a(I88
I25
F-0.03868447596964642
g881
tp1468
a(I89
I25
F-0.061651671827273775
g881
tp1469
a(I90
I25
F-0.2930247419869886
g881
tp1470
a(I91
I25
F-0.6939250637591823
g881
tp1471
a(I92
I25
F-1.0830832377458068
g150
tp1472
a(I93
I25
F-0.9093478156777212
g32
tp1473
a(I94
I25
F-1.2930365121799685
g881
tp1474
a(I95
I25
F-0.9859972412461855
g881
tp1475
a(I96
I25
F-0.8128789164583226
g4
tp1476
a(I97
I25
F-0.20197288999806035
g4
tp1477
a(I26
I26
F-0.7859964955287267
g539
tp1478
a(I27
I26
F-1.2157275679854747
g881
tp1479
a(I28
I26
F-0.9124999414663748
g32
tp1480
a(I29
I26
F-0.5839814496791361
g32
tp1481
a(I30
I26
F-0.2723991627155709
g32
tp1482
a(I31
I26
F-0.21912838258216252
g32
tp1483
a(I32
I26
F-0.5278092159016071
g881
tp1484
a(I33
I26
F-0.07845627966550466
g881
tp1485
a(I34
I26
F-0.05550045576531619
g881
tp1486
a(I35
I26
F-0.6787076234436246
g881
tp1487
a(I36
I26
F-0.7659142703935793
g539
tp1488
a(I37
I26
F-0.4115350204470775
g881
tp1489
a(I38
I26
F-0.1485618328163737
g881
tp1490
a(I39
I26
F-0.27518775468672296
g881
tp1491
a(I40
I26
F-0.6438290321595218
g881
tp1492
a(I41
I26
F-1.1221011489253534
g881
tp1493
a(I42
I26
F-0.7183086752103686
g32
tp1494
a(I43
I26
F-0.5152632228217622
g32
tp1495
a(I44
I26
F-0.7988208950526663
g32
tp1496
a(I45
I26
F-0.3682146996082595
g881
tp1497
a(I46
I26
F-0.08527046164921846
g881
tp1498
a(I47
I26
F-0.11889058389265922
g881
tp1499
a(I48
I26
F-0.08196210954779876
g881
tp1500
a(I49
I26
F-0.04200370497699049
g881
tp1501
a(I50
I26
F-0.08316553036202913
g881
tp1502
a(I51
I26
F-0.32598050238021103
g881
tp1503
a(I52
I26
F-0.6239104033467919
g881
tp1504
a(I53
I26
F-0.8000140589748405
g881
tp1505
a(I54
I26
F-1.1053445622184066
g32
tp1506
a(I55
I26
F-0.3288608286394214
g32
tp1507
a(I56
I26
F-0.8379737501920287
g881
tp1508
a(I57
I26
F-0.2509855797588497
g881
tp1509
a(I58
I26
F-0.08913522911742863
g881
tp1510
a(I59
I26
F-0.05176257765910196
g881
tp1511
a(I60
I26
F-0.13573414479923657
g881
tp1512
a(I61
I26
F-0.2278684627013403
g881
tp1513
a(I62
I26
F-0.17540361073451394
g881
tp1514
a(I63
I26
F-0.16451754527270707
g881
tp1515
a(I64
I26
F-0.1788889006454353
g881
tp1516
a(I65
I26
F-0.15716013425910336
g881
tp1517
a(I66
I26
F-0.0447271794935069
g881
tp1518
a(I67
I26
F-0.029958524192753532
g881
tp1519
a(I68
I26
F-0.040595713716066295
g881
tp1520
a(I69
I26
F-0.08168721160723919
g881
tp1521
a(I70
I26
F-0.18500426978620194
g881
tp1522
a(I71
I26
F-0.9421374566105617
g333
tp1523
a(I72
I26
F-1.1629493708906808
g333
tp1524
a(I73
I26
F-0.7233285763085029
g881
tp1525
a(I74
I26
F-0.17624188231425902
g881
tp1526
a(I75
I26
F-0.03313407581572829
g881
tp1527
a(I76
I26
F-0.027946756511700012
g881
tp1528
a(I77
I26
F-0.0334167499808507
g881
tp1529
a(I78
I26
F-0.06314471346346993
g881
tp1530
a(I79
I26
F-0.2108588847414637
g881
tp1531
a(I80
I26
F-0.3712356395230907
g881
tp1532
a(I81
I26
F-0.35688691230426145
g881
tp1533
a(I82
I26
F-0.19219820116012087
g881
tp1534
a(I83
I26
F-0.03664514704663614
g881
tp1535
a(I84
I26
F-0.060431500410766746
g881
tp1536
a(I85
I26
F-0.15621690720124368
g881
tp1537
a(I86
I26
F-0.04738147425613407
g881
tp1538
a(I87
I26
F-0.04442496945088187
g881
tp1539
a(I88
I26
F-0.034938353498019895
g881
tp1540
a(I89
I26
F-0.05654408792500304
g881
tp1541
a(I90
I26
F-0.2754386373168425
g881
tp1542
a(I91
I26
F-0.6710517097472594
g881
tp1543
a(I92
I26
F-1.1138545506593924
g150
tp1544
a(I93
I26
F-0.8998971669522631
g32
tp1545
a(I94
I26
F-1.2010811890880593
g881
tp1546
a(I95
I26
F-0.8797783420869401
g881
tp1547
a(I96
I26
F-0.9139367187966647
g4
tp1548
a(I97
I26
F-0.2470698510740426
g4
tp1549
a(I27
I27
F-0.7529644116521711
g539
tp1550
a(I28
I27
F-1.1270006852518977
g881
tp1551
a(I29
I27
F-1.0976004768069876
g32
tp1552
a(I30
I27
F-0.6089266074467559
g32
tp1553
a(I31
I27
F-0.2797064914647186
g32
tp1554
a(I32
I27
F-0.3137370807033493
g32
tp1555
a(I33
I27
F-0.3897804649011239
g881
tp1556
a(I34
I27
F-0.05880393633029349
g881
tp1557
a(I35
I27
F-0.04851989285290907
g881
tp1558
a(I36
I27
F-0.5969357579373691
g881
tp1559
a(I37
I27
F-0.8924547362618813
g539
tp1560
a(I38
I27
F-0.3167215906100383
g881
tp1561
a(I39
I27
F-0.12098465353412828
g881
tp1562
a(I40
I27
F-0.25838471985247247
g881
tp1563
a(I41
I27
F-0.6312706922693613
g881
tp1564
a(I42
I27
F-1.0952931114909485
g881
tp1565
a(I43
I27
F-0.9112960351947956
g32
tp1566
a(I44
I27
F-0.7820477973470338
g32
tp1567
a(I45
I27
F-0.5360962434637822
g881
tp1568
a(I46
I27
F-0.2242511695581383
g881
tp1569
a(I47
I27
F-0.06694179232515517
g881
tp1570
a(I48
I27
F-0.09647443741234894
g881
tp1571
a(I49
I27
F-0.06663334377566739
g881
tp1572
a(I50
I27
F-0.037491738664267416
g881
tp1573
a(I51
I27
F-0.08195443331214276
g881
tp1574
a(I52
I27
F-0.27326979338758867
g881
tp1575
a(I53
I27
F-0.5210731290831896
g881
tp1576
a(I54
I27
F-0.6073092129428439
g881
tp1577
a(I55
I27
F-1.2295654041128234
g881
tp1578
a(I56
I27
F-0.6148569034553868
g32
tp1579
a(I57
I27
F-0.5621360383241524
g881
tp1580
a(I58
I27
F-0.17140684111455
g881
tp1581
a(I59
I27
F-0.05976574849199261
g881
tp1582
a(I60
I27
F-0.039837055824498195
g881
tp1583
a(I61
I27
F-0.1075082451932681
g881
tp1584
a(I62
I27
F-0.1774608735602359
g881
tp1585
a(I63
I27
F-0.14178762356958535
g881
tp1586
a(I64
I27
F-0.13209621193711557
g881
tp1587
a(I65
I27
F-0.15013382594134447
g881
tp1588
a(I66
I27
F-0.13931279006499545
g881
tp1589
a(I67
I27
F-0.03825810303382099
g881
tp1590
a(I68
I27
F-0.022589980308960922
g881
tp1591
a(I69
I27
F-0.03056308278049268
g881
tp1592
a(I70
I27
F-0.05946002276402811
g881
tp1593
a(I71
I27
F-0.1353268485654109
g881
tp1594
a(I72
I27
F-0.9015740215829408
g881
tp1595
a(I73
I27
F-1.1061035564632644
g881
tp1596
a(I74
I27
F-0.6236299036249804
g881
tp1597
a(I75
I27
F-0.14775294691695465
g881
tp1598
a(I76
I27
F-0.028622301022394724
g881
tp1599
a(I77
I27
F-0.02285483261644643
g881
tp1600
a(I78
I27
F-0.025875055871477697
g881
tp1601
a(I79
I27
F-0.047613326290360615
g881
tp1602
a(I80
I27
F-0.1312916385413488
g881
tp1603
a(I81
I27
F-0.24128352846393566
g881
tp1604
a(I82
I27
F-0.22006839876059944
g881
tp1605
a(I83
I27
F-0.11097898987439068
g881
tp1606
a(I84
I27
F-0.025727175788013968
g881
tp1607
a(I85
I27
F-0.05101294289152045
g881
tp1608
a(I86
I27
F-0.11715855632572794
g881
tp1609
a(I87
I27
F-0.03941612653232967
g881
tp1610
a(I88
I27
F-0.039531887389810075
g881
tp1611
a(I89
I27
F-0.03083986000447605
g881
tp1612
a(I90
I27
F-0.05365970837815522
g881
tp1613
a(I91
I27
F-0.268052194833381
g881
tp1614
a(I92
I27
F-0.646092217553684
g881
tp1615
a(I93
I27
F-1.0778937377647146
g881
tp1616
a(I94
I27
F-0.9096641391598814
g32
tp1617
a(I95
I27
F-1.0477224532064224
g881
tp1618
a(I96
I27
F-0.7882998388070499
g881
tp1619
a(I97
I27
F-0.9163125235932428
g881
tp1620
a(I28
I28
F-1.1114593389108305
g881
tp1621
a(I29
I28
F-1.105326958944881
g32
tp1622
a(I30
I28
F-0.6106903359886912
g32
tp1623
a(I31
I28
F-0.2796398789510292
g32
tp1624
a(I32
I28
F-0.3644403230386923
g32
tp1625
a(I33
I28
F-0.35451444384084785
g881
tp1626
a(I34
I28
F-0.057099839835571625
g881
tp1627
a(I35
I28
F-0.04733482518311808
g881
tp1628
a(I36
I28
F-0.5782285921925242
g881
tp1629
a(I37
I28
F-0.9314849253864653
g539
tp1630
a(I38
I28
F-0.29479980028703257
g881
tp1631
a(I39
I28
F-0.25191580385028844
g881
tp1632
a(I40
I28
F-0.2444460413438081
g881
tp1633
a(I41
I28
F-0.5965541595802962
g881
tp1634
a(I42
I28
F-1.0600537445047356
g881
tp1635
a(I43
I28
F-0.9448778078898096
g32
tp1636
a(I44
I28
F-0.810804223026826
g32
tp1637
a(I45
I28
F-0.5061688798181531
g881
tp1638
a(I46
I28
F-0.2133673882214634
g881
tp1639
a(I47
I28
F-0.0645327431255998
g881
tp1640
a(I48
I28
F-0.09293038931238513
g881
tp1641
a(I49
I28
F-0.0639053358544846
g881
tp1642
a(I50
I28
F-0.036670522835168626
g881
tp1643
a(I51
I28
F-0.07973636184444595
g881
tp1644
a(I52
I28
F-0.26202440503860885
g881
tp1645
a(I53
I28
F-0.49916393587991426
g881
tp1646
a(I54
I28
F-0.589340586320248
g881
tp1647
a(I55
I28
F-1.1924964165355216
g881
tp1648
a(I56
I28
F-0.6602571036865028
g32
tp1649
a(I57
I28
F-0.540712052997326
g881
tp1650
a(I58
I28
F-0.16362785470318583
g881
tp1651
a(I59
I28
F-0.05861083186902282
g881
tp1652
a(I60
I28
F-0.03956378778457443
g881
tp1653
a(I61
I28
F-0.10511537578517767
g881
tp1654
a(I62
I28
F-0.17248121526548282
g881
tp1655
a(I63
I28
F-0.13879678469821316
g881
tp1656
a(I64
I28
F-0.12543184614130956
g881
tp1657
a(I65
I28
F-0.14415826661325154
g881
tp1658
a(I66
I28
F-0.13478227370466264
g881
tp1659
a(I67
I28
F-0.03778401502497122
g881
tp1660
a(I68
I28
F-0.022531132811460058
g881
tp1661
a(I69
I28
F-0.030530720736788138
g881
tp1662
a(I70
I28
F-0.05733852190618304
g881
tp1663
a(I71
I28
F-0.12814979535904925
g881
tp1664
a(I72
I28
F-0.3843122157671356
g881
tp1665
a(I73
I28
F-1.0528363600454222
g881
tp1666
a(I74
I28
F-0.6074823888769287
g881
tp1667
a(I75
I28
F-0.14130819767678426
g881
tp1668
a(I76
I28
F-0.028185216876002922
g881
tp1669
a(I77
I28
F-0.02265813210867259
g881
tp1670
a(I78
I28
F-0.025360343202302935
g881
tp1671
a(I79
I28
F-0.044951349340266185
g881
tp1672
a(I80
I28
F-0.11700337872659693
g881
tp1673
a(I81
I28
F-0.2110041985408964
g881
tp1674
a(I82
I28
F-0.19785363286081784
g881
tp1675
a(I83
I28
F-0.10141627271470109
g881
tp1676
a(I84
I28
F-0.024580491065007513
g881
tp1677
a(I85
I28
F-0.048862456992470125
g881
tp1678
a(I86
I28
F-0.11104775745427432
g881
tp1679
a(I87
I28
F-0.1581732569364414
g881
tp1680
a(I88
I28
F-0.03671703834847571
g881
tp1681
a(I89
I28
F-0.028933799593001235
g881
tp1682
a(I90
I28
F-0.05030792832461442
g881
tp1683
a(I91
I28
F-0.24927615157451097
g881
tp1684
a(I92
I28
F-0.6236337632018552
g881
tp1685
a(I93
I28
F-1.059073259154367
g881
tp1686
a(I94
I28
F-0.9046491498259844
g32
tp1687
a(I95
I28
F-1.0013920772657101
g881
tp1688
a(I96
I28
F-0.736274231274422
g881
tp1689
a(I97
I28
F-0.8430004689432187
g881
tp1690
a(I29
I29
F-1.024822259608487
g881
tp1691
a(I30
I29
F-1.1999315030396396
g32
tp1692
a(I31
I29
F-0.6505081593097856
g32
tp1693
a(I32
I29
F-0.29868227168826206
g32
tp1694
a(I33
I29
F-0.4862823679739216
g32
tp1695
a(I34
I29
F-0.2630075725847928
g881
tp1696
a(I35
I29
F-0.04226495879681891
g881
tp1697
a(I36
I29
F-0.040736418636455524
g881
tp1698
a(I37
I29
F-0.44297897568946765
g881
tp1699
a(I38
I29
F-0.7913373898640104
g881
tp1700
a(I39
I29
F-0.26666018198790026
g881
tp1701
a(I40
I29
F-0.2371991173822724
g881
tp1702
a(I41
I29
F-0.24154323757496526
g881
tp1703
a(I42
I29
F-0.584941663940999
g881
tp1704
a(I43
I29
F-0.9506203893882548
g881
tp1705
a(I44
I29
F-1.093814951336994
g881
tp1706
a(I45
I29
F-0.8125218152712615
g881
tp1707
a(I46
I29
F-0.36583219572059356
g881
tp1708
a(I47
I29
F-0.17587634557199078
g881
tp1709
a(I48
I29
F-0.05141711965755358
g881
tp1710
a(I49
I29
F-0.08057058061196067
g881
tp1711
a(I50
I29
F-0.05536213715435355
g881
tp1712
a(I51
I29
F-0.03251828475232912
g881
tp1713
a(I52
I29
F-0.05960539688124203
g881
tp1714
a(I53
I29
F-0.20292982418237562
g881
tp1715
a(I54
I29
F-0.28016624232953236
g881
tp1716
a(I55
I29
F-0.46860374095842167
g881
tp1717
a(I56
I29
F-0.9596841790932137
g881
tp1718
a(I57
I29
F-0.9663086065974665
g32
tp1719
a(I58
I29
F-0.43929824806137757
g881
tp1720
a(I59
I29
F-0.12542445282149992
g881
tp1721
a(I60
I29
F-0.04248224539477999
g881
tp1722
a(I61
I29
F-0.029651935447985427
g881
tp1723
a(I62
I29
F-0.07999679906782262
g881
tp1724
a(I63
I29
F-0.13740706181399603
g881
tp1725
a(I64
I29
F-0.11689498242650766
g881
tp1726
a(I65
I29
F-0.11067027289855022
g881
tp1727
a(I66
I29
F-0.13364115620621486
g881
tp1728
a(I67
I29
F-0.11894804867438012
g881
tp1729
a(I68
I29
F-0.030919718842534413
g881
tp1730
a(I69
I29
F-0.018124544829349158
g881
tp1731
a(I70
I29
F-0.024854455262690568
g881
tp1732
a(I71
I29
F-0.04514622633560586
g881
tp1733
a(I72
I29
F-0.09916358208316604
g881
tp1734
a(I73
I29
F-0.28927145369768503
g881
tp1735
a(I74
I29
F-0.8835606755383594
g881
tp1736
a(I75
I29
F-0.5111998084253391
g881
tp1737
a(I76
I29
F-0.12771552409324347
g881
tp1738
a(I77
I29
F-0.02590416764038251
g881
tp1739
a(I78
I29
F-0.01928939807431514
g881
tp1740
a(I79
I29
F-0.020549687524745668
g881
tp1741
a(I80
I29
F-0.03236552315460393
g881
tp1742
a(I81
I29
F-0.08443917317267426
g881
tp1743
a(I82
I29
F-0.13808920098738892
g881
tp1744
a(I83
I29
F-0.11443317696937762
g881
tp1745
a(I84
I29
F-0.06328256824486768
g881
tp1746
a(I85
I29
F-0.01975808863000295
g881
tp1747
a(I86
I29
F-0.039833459330023406
g881
tp1748
a(I87
I29
F-0.09007975517873719
g881
tp1749
a(I88
I29
F-0.13746578280076485
g881
tp1750
a(I89
I29
F-0.031787465647077955
g881
tp1751
a(I90
I29
F-0.02750251117215544
g881
tp1752
a(I91
I29
F-0.04880008440559523
g881
tp1753
a(I92
I29
F-0.23750077982502082
g881
tp1754
a(I93
I29
F-0.5997029395666377
g881
tp1755
a(I94
I29
F-0.9462712376362719
g881
tp1756
a(I95
I29
F-0.9309968529260455
g32
tp1757
a(I96
I29
F-0.8954627873846502
g881
tp1758
a(I97
I29
F-0.6705207347162198
g881
tp1759
a.